ASxxxx Linker V03.00/V05.40 + sdld,  page 1.
Hexadecimal  [32-Bits]

Area                                    Addr        Size        Decimal Bytes (Attributes)
--------------------------------        ----        ----        ------- ----- ------------
.  .ABS.                            00000000    00000000 =           0. bytes (ABS,CON)

      Value  Global                              Global Defined In Module
      -----  --------------------------------   ------------------------
     00000000  .__.ABS.                           SetTileMap
     00000000  _rRAMG                             
     00000000  l__BASE                         
     00000000  l__BSS                          
     00000000  l__CABS                         
     00000000  l__CODE_0                       
     00000000  l__DABS                         
     00000000  l__HEADER                       
     00000000  l__HEAP                         
     00000000  l__HEAP_END                     
     00000000  l__HRAM                         
     00000000  l__LIT                          
     00000000  s__CABS                         
     00000000  s__CABS0                        
     00000000  s__DABS                         
     00000000  s__HEADER                       
     00000000  s__HEADER0                      
     00000000  s__HEADER1                      
     00000000  s__HEADER10                     
     00000000  s__HEADER11                     
     00000000  s__HEADER2                      
     00000000  s__HEADER3                      
     00000000  s__HEADER4                      
     00000000  s__HEADER5                      
     00000000  s__HEADER6                      
     00000000  s__HEADER7                      
     00000000  s__HEADER8                      
     00000000  s__HEADER9                      
     00000000  s__HEADERa                      
     00000000  s__HEADERb                      
     00000000  s__HEADERc                      
     00000000  s__HEADERd                      
     00000000  s__HEADERe                      
     00000000  s__HEADERf                      
     00000000  s__HRAM                         
     00000000  s__HRAM12                       
     00000001  l__GSFINAL                      
     00000001  l__HEADER0                      
     00000001  l__HEADER5                      
     00000001  l__HEADERa                      
     00000001  l__HEADERb                      
     00000001  l__HEADERc                      
     00000001  l__HEADERe                      
     00000001  l__HEADERf                      
     00000002  l__HEADER10                     
     00000002  l__HEADER6                      
     00000002  l__HEADERd                      
     00000003  l__CABS0                        
     00000003  l__HEADER9                      
     00000003  l__HRAM12                       
ASxxxx Linker V03.00/V05.40 + sdld,  page 2.
Hexadecimal  [32-Bits]

Area                                    Addr        Size        Decimal Bytes (Attributes)
--------------------------------        ----        ----        ------- ----- ------------
.  .ABS.                            00000000    00000000 =           0. bytes (ABS,CON)

      Value  Global                              Global Defined In Module
      -----  --------------------------------   ------------------------
     00000005  l__HEADER1                      
     00000006  l__HEADER8                      
     00000007  l__HEADER2                      
     00000008  l__HEADER3                      
     0000000C  l__GSINIT                       
     00000029  l__DATA                         
     00000030  l__HEADER7                      
     00000060  l__HEADER4                      
     000000AB  l__HEADER11                     
     00000200  s__CODE                         
     00000286  l__HOME                         
     00001B40  l__INITIALIZED                  
     00001B40  l__INITIALIZER                  
     00002000  _rROMB0                            
     00003000  _rROMB1                            
     00004000  _rRAMB                             
     0000601F  l__CODE                         
     0000621F  s__HOME                         
     000064A5  s__BASE                         
     000064A5  s__CODE_0                       
     000064A5  s__INITIALIZER                  
     000064A5  s__LIT                          
     00007FE5  s__GSINIT                       
     00007FF1  s__GSFINAL                      
     00008000  __VRAM                             
     00008000  __VRAM8000                         
     00008800  __VRAM8800                         
     00009000  __VRAM9000                         
     00009800  __SCRN0                            
     00009C00  __SCRN1                            
     0000A000  __SRAM                             
     0000C000  __RAM                              
     0000C000  _shadow_OAM                     
     0000C0A0  s__DATA                         
     0000C0C9  s__BSS                          
     0000C0C9  s__INITIALIZED                  
     0000D000  __RAMBANK                          
     0000DC09  s__HEAP                         
     0000DC09  s__HEAP_END                     
     0000E000  .STACK                          
     0000FE00  __OAMRAM                           
     0000FF00  _P1_REG                            
     0000FF00  __IO                               
     0000FF01  _SB_REG                            
     0000FF02  _SC_REG                            
     0000FF04  _DIV_REG                           
     0000FF05  _TIMA_REG                          
     0000FF06  _TMA_REG                           
     0000FF07  _TAC_REG                           
     0000FF0F  _IF_REG                            
     0000FF10  _NR10_REG                          
ASxxxx Linker V03.00/V05.40 + sdld,  page 3.
Hexadecimal  [32-Bits]

Area                                    Addr        Size        Decimal Bytes (Attributes)
--------------------------------        ----        ----        ------- ----- ------------
.  .ABS.                            00000000    00000000 =           0. bytes (ABS,CON)

      Value  Global                              Global Defined In Module
      -----  --------------------------------   ------------------------
     0000FF11  _NR11_REG                          
     0000FF12  _NR12_REG                          
     0000FF13  _NR13_REG                          
     0000FF14  _NR14_REG                          
     0000FF16  _NR21_REG                          
     0000FF17  _NR22_REG                          
     0000FF18  _NR23_REG                          
     0000FF19  _NR24_REG                          
     0000FF1A  _NR30_REG                          
     0000FF1B  _NR31_REG                          
     0000FF1C  _NR32_REG                          
     0000FF1D  _NR33_REG                          
     0000FF1E  _NR34_REG                          
     0000FF20  _NR41_REG                          
     0000FF21  _NR42_REG                          
     0000FF22  _NR43_REG                          
     0000FF23  _NR44_REG                          
     0000FF24  _NR50_REG                          
     0000FF25  _NR51_REG                          
     0000FF26  _NR52_REG                          
     0000FF30  _AUD3WAVE                          
     0000FF30  _PCM_SAMPLE                        
     0000FF30  __AUD3WAVERAM                      
     0000FF40  _LCDC_REG                          
     0000FF41  _STAT_REG                          
     0000FF42  _SCY_REG                           
     0000FF43  _SCX_REG                           
     0000FF44  _LY_REG                            
     0000FF45  _LYC_REG                           
     0000FF46  _DMA_REG                           
     0000FF47  _BGP_REG                           
     0000FF48  _OBP0_REG                          
     0000FF49  _OBP1_REG                          
     0000FF4A  _WY_REG                            
     0000FF4B  _WX_REG                            
     0000FF4D  _KEY1_REG                          
     0000FF4F  _VBK_REG                           
     0000FF51  _HDMA1_REG                         
     0000FF52  _HDMA2_REG                         
     0000FF53  _HDMA3_REG                         
     0000FF54  _HDMA4_REG                         
     0000FF55  _HDMA5_REG                         
     0000FF56  _RP_REG                            
     0000FF68  _BCPS_REG                          
     0000FF69  _BCPD_REG                          
     0000FF6A  _OCPS_REG                          
     0000FF6B  _OCPD_REG                          
     0000FF70  _SVBK_REG                          
     0000FF76  _PCM12_REG                         
     0000FF77  _PCM34_REG                         
     0000FF80  .refresh_OAM                    
ASxxxx Linker V03.00/V05.40 + sdld,  page 4.
Hexadecimal  [32-Bits]

Area                                    Addr        Size        Decimal Bytes (Attributes)
--------------------------------        ----        ----        ------- ----- ------------
.  .ABS.                            00000000    00000000 =           0. bytes (ABS,CON)

      Value  Global                              Global Defined In Module
      -----  --------------------------------   ------------------------
     0000FF80  __HRAM                             
     0000FFFF  _IE_REG                            

ASxxxx Linker V03.00/V05.40 + sdld,  page 5.
Hexadecimal  [32-Bits]

Area                                    Addr        Size        Decimal Bytes (Attributes)
--------------------------------        ----        ----        ------- ----- ------------
_CODE                               00000200    0000601F =       24607. bytes (REL,CON)

      Value  Global                              Global Defined In Module
      -----  --------------------------------   ------------------------
     00000200  A$main$62                          main
     00000200  C$main.c$9$0_0$149                 main
     00000200  G$main$0$0                         main
     00000200  _main                              main
     00000201  A$main$66                          main
     00000201  C$main.c$11$2_0$149                main
     00000203  A$main$67                          main
     00000205  A$main$71                          main
     00000205  C$main.c$12$2_0$149                main
     00000207  A$main$79                          main
     00000207  C$main.c$15$1_0$149                main
     00000207  C$main.c$19$2_0$150                main
     00000209  A$main$80                          main
     0000020A  A$main$81                          main
     0000020B  A$main$82                          main
     0000020D  A$main$86                          main
     0000020D  C$main.c$21$3_0$151                main
     0000020F  A$main$90                          main
     0000020F  C$main.c$22$3_0$151                main
     00000210  A$main$91                          main
     00000211  A$main$92                          main
     00000212  A$main$93                          main
     00000214  A$main$94                          main
     00000215  A$main$95                          main
     00000217  A$main$96                          main
     00000219  A$main$97                          main
     0000021B  A$main$98                          main
     0000021D  A$main$99                          main
     0000021F  A$main$100                         main
     00000221  A$main$101                         main
     00000223  A$main$102                         main
     00000225  A$main$103                         main
     00000227  A$main$111                         main
     00000227  C$main.c$24$4_0$152                main
     00000227  C$main.c$25$4_0$152                main
     00000228  A$main$112                         main
     0000022B  A$main$113                         main
     0000022C  A$main$117                         main
     0000022C  C$main.c$26$4_0$152                main
     0000022E  A$main$125                         main
     0000022E  C$main.c$27$4_0$152                main
     0000022E  C$main.c$28$4_0$152                main
     0000022F  A$main$126                         main
     00000232  A$main$127                         main
     00000233  A$main$131                         main
     00000233  C$main.c$29$4_0$152                main
     00000235  A$main$139                         main
     00000235  C$main.c$30$4_0$152                main
     00000235  C$main.c$31$4_0$152                main
     00000236  A$main$140                         main
ASxxxx Linker V03.00/V05.40 + sdld,  page 6.
Hexadecimal  [32-Bits]

Area                                    Addr        Size        Decimal Bytes (Attributes)
--------------------------------        ----        ----        ------- ----- ------------
_CODE                               00000200    0000601F =       24607. bytes (REL,CON)

      Value  Global                              Global Defined In Module
      -----  --------------------------------   ------------------------
     00000239  A$main$141                         main
     0000023A  A$main$145                         main
     0000023A  C$main.c$32$4_0$152                main
     0000023C  A$main$153                         main
     0000023C  C$main.c$33$4_0$152                main
     0000023C  C$main.c$34$4_0$152                main
     0000023D  A$main$154                         main
     00000240  A$main$155                         main
     00000241  A$main$159                         main
     00000241  C$main.c$35$4_0$152                main
     00000243  A$main$167                         main
     00000243  C$main.c$36$4_0$152                main
     00000243  C$main.c$37$4_0$152                main
     00000244  A$main$168                         main
     00000247  A$main$169                         main
     00000248  A$main$177                         main
     00000248  C$main.c$40$2_0$150                main
     00000248  C$main.c$47$2_0$150                main
     0000024A  A$main$178                         main
     0000024B  A$main$179                         main
     0000024C  A$main$180                         main
     0000024E  A$main$181                         main
     00000250  A$main$182                         main
     00000251  A$main$183                         main
     00000253  A$main$184                         main
     00000255  A$main$185                         main
     00000257  A$main$186                         main
     00000258  A$main$187                         main
     0000025A  A$main$188                         main
     0000025C  A$main$189                         main
     0000025E  A$main$190                         main
     0000025F  A$main$191                         main
     00000261  A$main$192                         main
     00000263  A$main$193                         main
     00000265  A$main$194                         main
     00000266  A$main$195                         main
     00000268  A$main$196                         main
     0000026A  A$main$197                         main
     0000026C  A$main$205                         main
     0000026C  C$main.c$49$3_0$153                main
     0000026C  C$main.c$50$3_0$153                main
     0000026F  A$main$206                         main
     00000270  A$main$210                         main
     00000270  C$main.c$51$3_0$153                main
     00000272  A$main$218                         main
     00000272  C$main.c$52$3_0$153                main
     00000272  C$main.c$53$3_0$153                main
     00000275  A$main$219                         main
     00000276  A$main$223                         main
     00000276  C$main.c$54$3_0$153                main
     00000278  A$main$231                         main
ASxxxx Linker V03.00/V05.40 + sdld,  page 7.
Hexadecimal  [32-Bits]

Area                                    Addr        Size        Decimal Bytes (Attributes)
--------------------------------        ----        ----        ------- ----- ------------
_CODE                               00000200    0000601F =       24607. bytes (REL,CON)

      Value  Global                              Global Defined In Module
      -----  --------------------------------   ------------------------
     00000278  C$main.c$55$3_0$153                main
     00000278  C$main.c$56$3_0$153                main
     0000027B  A$main$232                         main
     0000027C  A$main$236                         main
     0000027C  C$main.c$57$3_0$153                main
     0000027E  A$main$244                         main
     0000027E  C$main.c$58$3_0$153                main
     0000027E  C$main.c$59$3_0$153                main
     00000281  A$main$245                         main
     00000282  A$main$249                         main
     00000282  C$main.c$60$3_0$153                main
     00000284  A$main$257                         main
     00000284  C$main.c$61$3_0$153                main
     00000284  C$main.c$62$3_0$153                main
     00000287  A$main$258                         main
     00000288  A$main$262                         main
     00000288  C$main.c$63$3_0$153                main
     0000028B  A$main$269                         main
     0000028B  C$main.c$66$1_0$149                main
     0000028C  A$main$274                         main
     0000028C  C$main.c$73$1_0$149                main
     0000028C  XG$main$0$0                        main
     0000028D  G$Cast_Tiles$0_0$0                 cast_tiles
     0000028D  _Cast_Tiles                        cast_tiles
     00000A8D  G$IndoorTiles$0_0$0                indoor_tiles
     00000A8D  _IndoorTiles                       indoor_tiles
     0000128D  A$home$57                          home
     0000128D  C$home.c$390$0_0$2                 home
     0000128D  G$returnCollisionValue$0$0         home
     0000128D  _returnCollisionValue              home
     0000128E  A$home$61                          home
     0000128E  C$home.c$392$1_0$2                 home
     00001290  A$home$62                          home
     00001291  A$home$63                          home
     00001292  A$home$64                          home
     00001293  A$home$65                          home
     00001294  A$home$66                          home
     00001295  A$home$67                          home
     00001296  A$home$68                          home
     00001297  A$home$69                          home
     00001298  A$home$70                          home
     0000129B  A$home$71                          home
     0000129C  A$home$72                          home
     0000129D  A$home$73                          home
     0000129F  A$home$74                          home
     000012A0  A$home$75                          home
     000012A1  A$home$83                          home
     000012A1  C$home.c$393$1_0$2                 home
     000012A1  XG$returnCollisionValue$0$0        home
     000012A2  G$HOME_COLLISION$0_0$0             home
     000012A2  _HOME_COLLISION                    home
ASxxxx Linker V03.00/V05.40 + sdld,  page 8.
Hexadecimal  [32-Bits]

Area                                    Addr        Size        Decimal Bytes (Attributes)
--------------------------------        ----        ----        ------- ----- ------------
_CODE                               00000200    0000601F =       24607. bytes (REL,CON)

      Value  Global                              Global Defined In Module
      -----  --------------------------------   ------------------------
     00001518  A$player$61                        player
     00001518  C$player.c$37$0_0$185              player
     00001518  G$check_map$0$0                    player
     00001518  _check_map                         player
     00001519  A$player$65                        player
     00001519  C$player.c$39$1_0$185              player
     0000151A  A$player$66                        player
     0000151C  A$player$70                        player
     0000151C  C$player.c$41$2_0$186              player
     0000151E  A$player$71                        player
     0000151F  A$player$72                        player
     00001520  A$player$73                        player
     00001523  A$player$78                        player
     00001523  C$player.c$43$1_0$185              player
     00001524  A$player$79                        player
     00001525  A$player$80                        player
     00001526  G$mouse_down$0_0$0                 player
     00001526  _mouse_down                        player
     00001532  G$mouse_up$0_0$0                   player
     00001532  _mouse_up                          player
     0000153E  G$mouse_right0$0_0$0               player
     0000153E  _mouse_right0                      player
     0000154A  G$mouse_right1$0_0$0               player
     0000154A  _mouse_right1                      player
     00001556  G$mouse_metasprites$0_0$0          player
     00001556  _mouse_metasprites                 player
     0000155E  A$player$152                       player
     0000155E  C$player.c$45$1_0$188              player
     0000155E  G$PlayerUpdate$0$0                 player
     0000155E  _PlayerUpdate                      player
     0000155F  A$player$153                       player
     00001560  A$player$157                       player
     00001560  C$player.c$48$1_0$188              player
     00001563  A$player$158                       player
     00001564  A$player$159                       player
     00001565  A$player$160                       player
     00001566  A$player$161                       player
     00001567  A$player$165                       player
     00001567  C$player.c$51$2_0$189              player
     0000156A  A$player$166                       player
     0000156D  A$player$170                       player
     0000156D  C$player.c$52$2_0$189              player
     00001570  A$player$171                       player
     00001573  A$player$172                       player
     00001574  A$player$176                       player
     00001574  C$player.c$53$1_0$188              player
     00001575  A$player$180                       player
     00001575  C$player.c$57$1_0$188              player
     00001578  A$player$181                       player
     00001579  A$player$185                       player
     00001579  C$player.c$53$2_0$189              player
ASxxxx Linker V03.00/V05.40 + sdld,  page 9.
Hexadecimal  [32-Bits]

Area                                    Addr        Size        Decimal Bytes (Attributes)
--------------------------------        ----        ----        ------- ----- ------------
_CODE                               00000200    0000601F =       24607. bytes (REL,CON)

      Value  Global                              Global Defined In Module
      -----  --------------------------------   ------------------------
     0000157B  A$player$186                       player
     0000157D  A$player$190                       player
     0000157D  C$player.c$57$3_0$190              player
     0000157F  A$player$191                       player
     00001580  A$player$196                       player
     00001580  C$player.c$59$2_0$189              player
     00001582  A$player$197                       player
     00001584  A$player$201                       player
     00001584  C$player.c$62$3_0$191              player
     00001586  A$player$202                       player
     00001587  A$player$207                       player
     00001587  C$player.c$64$2_0$189              player
     00001589  A$player$208                       player
     0000158B  A$player$212                       player
     0000158B  C$player.c$67$3_0$192              player
     0000158D  A$player$213                       player
     0000158E  A$player$218                       player
     0000158E  C$player.c$69$2_0$189              player
     00001590  A$player$219                       player
     00001591  A$player$223                       player
     00001591  C$player.c$72$3_0$193              player
     00001593  A$player$234                       player
     00001593  C$player.c$78$1_0$188              player
     00001593  C$player.c$79$1_0$188              player
     00001593  XG$PlayerUpdate$0$0                player
     00001594  A$player$244                       player
     00001594  C$player.c$81$1_0$195              player
     00001594  G$DrawPlayer$0$0                   player
     00001594  _DrawPlayer                        player
     00001596  A$player$248                       player
     00001599  A$player$249                       player
     0000159A  A$player$250                       player
     0000159B  A$player$251                       player
     0000159D  A$player$252                       player
     0000159E  A$player$256                       player
     0000159E  C$player.c$88$1_0$195              player
     0000159F  A$player$257                       player
     000015A0  A$player$258                       player
     000015A1  A$player$259                       player
     000015A2  A$player$260                       player
     000015A3  A$player$261                       player
     000015A5  A$player$262                       player
     000015A6  A$player$263                       player
     000015A7  A$player$267                       player
     000015A7  C$player.c$85$1_0$195              player
     000015A8  A$player$268                       player
     000015A9  A$player$269                       player
     000015AA  A$player$270                       player
     000015AC  A$player$271                       player
     000015AE  A$player$272                       player
     000015AF  A$player$273                       player
ASxxxx Linker V03.00/V05.40 + sdld,  page 10.
Hexadecimal  [32-Bits]

Area                                    Addr        Size        Decimal Bytes (Attributes)
--------------------------------        ----        ----        ------- ----- ------------
_CODE                               00000200    0000601F =       24607. bytes (REL,CON)

      Value  Global                              Global Defined In Module
      -----  --------------------------------   ------------------------
     000015B0  A$player$274                       player
     000015B2  A$player$275                       player
     000015B4  A$player$276                       player
     000015B5  A$player$277                       player
     000015B7  A$player$278                       player
     000015B9  A$player$279                       player
     000015BB  A$player$280                       player
     000015BC  A$player$281                       player
     000015BE  A$player$282                       player
     000015C0  A$player$283                       player
     000015C3  A$player$289                       player
     000015C3  C$player.c$87$2_0$196              player
     000015C5  A$player$290                       player
     000015C6  A$player$291                       player
     000015C7  A$player$292                       player
     000015C8  A$player$293                       player
     000015CB  A$player$294                       player
     000015CC  A$player$295                       player
     000015CD  A$player$300                       player
     000015CE  A$player$301                       player
     000015CF  A$player$302                       player
     000015D2  A$player$303                       player
     000015D3  A$player$304                       player
     000015D4  A$player$305                       player
     000015D5  A$player$307                       player
     000015D8  A$player$308                       player
     000015DA  A$player$310                       player
     000015DD  A$player$311                       player
     000015DF  A$player$313                       player
     000015E0  A$player$314                       player
     000015E1  A$player$315                       player
     000015E2  A$player$316                       player
     000015E5  A$player$320                       player
     000015E5  C$player.c$89$2_0$196              player
     000015E8  A$player$326                       player
     000015E8  C$player.c$90$2_0$196              player
     000015EB  A$player$327                       player
     000015EC  A$player$328                       player
     000015ED  A$player$329                       player
     000015EE  A$player$331                       player
     000015F1  A$player$332                       player
     000015F2  A$player$333                       player
     000015F3  A$player$334                       player
     000015F4  A$player$336                       player
     000015F7  A$player$337                       player
     000015F9  A$player$339                       player
     000015FC  A$player$340                       player
     000015FE  A$player$342                       player
     00001600  A$player$343                       player
     00001601  A$player$344                       player
     00001602  A$player$345                       player
ASxxxx Linker V03.00/V05.40 + sdld,  page 11.
Hexadecimal  [32-Bits]

Area                                    Addr        Size        Decimal Bytes (Attributes)
--------------------------------        ----        ----        ------- ----- ------------
_CODE                               00000200    0000601F =       24607. bytes (REL,CON)

      Value  Global                              Global Defined In Module
      -----  --------------------------------   ------------------------
     00001603  A$player$346                       player
     00001604  A$player$347                       player
     00001605  A$player$348                       player
     00001608  A$player$352                       player
     00001608  C$player.c$92$2_0$196              player
     0000160A  A$player$358                       player
     0000160A  C$player.c$93$2_0$196              player
     0000160C  A$player$359                       player
     0000160D  A$player$360                       player
     0000160E  A$player$361                       player
     0000160F  A$player$362                       player
     00001612  A$player$363                       player
     00001613  A$player$364                       player
     00001614  A$player$369                       player
     00001615  A$player$370                       player
     00001616  A$player$371                       player
     00001619  A$player$372                       player
     0000161A  A$player$373                       player
     0000161B  A$player$374                       player
     0000161C  A$player$376                       player
     0000161F  A$player$377                       player
     00001621  A$player$379                       player
     00001624  A$player$380                       player
     00001626  A$player$382                       player
     00001627  A$player$383                       player
     00001628  A$player$384                       player
     00001629  A$player$385                       player
     0000162C  A$player$389                       player
     0000162C  C$player.c$95$2_0$196              player
     0000162E  A$player$395                       player
     0000162E  C$player.c$96$2_0$196              player
     00001630  A$player$396                       player
     00001631  A$player$397                       player
     00001632  A$player$398                       player
     00001633  A$player$399                       player
     00001636  A$player$400                       player
     00001637  A$player$401                       player
     00001638  A$player$406                       player
     00001639  A$player$407                       player
     0000163A  A$player$408                       player
     0000163D  A$player$409                       player
     0000163E  A$player$410                       player
     0000163F  A$player$411                       player
     00001640  A$player$413                       player
     00001643  A$player$414                       player
     00001645  A$player$416                       player
     00001648  A$player$417                       player
     0000164A  A$player$419                       player
     0000164B  A$player$420                       player
     0000164C  A$player$421                       player
     0000164E  A$player$422                       player
ASxxxx Linker V03.00/V05.40 + sdld,  page 12.
Hexadecimal  [32-Bits]

Area                                    Addr        Size        Decimal Bytes (Attributes)
--------------------------------        ----        ----        ------- ----- ------------
_CODE                               00000200    0000601F =       24607. bytes (REL,CON)

      Value  Global                              Global Defined In Module
      -----  --------------------------------   ------------------------
     0000164F  A$player$423                       player
     00001650  A$player$424                       player
     00001653  A$player$428                       player
     00001653  C$player.c$98$2_0$196              player
     00001655  A$player$434                       player
     00001655  C$player.c$99$2_0$196              player
     00001657  A$player$435                       player
     00001658  A$player$436                       player
     00001659  A$player$437                       player
     0000165A  A$player$438                       player
     0000165D  A$player$439                       player
     0000165E  A$player$440                       player
     0000165F  A$player$445                       player
     00001660  A$player$446                       player
     00001661  A$player$447                       player
     00001664  A$player$448                       player
     00001665  A$player$449                       player
     00001666  A$player$450                       player
     00001667  A$player$452                       player
     0000166A  A$player$453                       player
     0000166C  A$player$455                       player
     0000166F  A$player$456                       player
     00001671  A$player$458                       player
     00001672  A$player$459                       player
     00001673  A$player$460                       player
     00001675  A$player$461                       player
     00001676  A$player$462                       player
     00001677  A$player$463                       player
     0000167A  A$player$471                       player
     0000167A  C$player.c$102$1_0$195             player
     0000167C  A$player$476                       player
     0000167C  C$player.c$103$1_0$195             player
     0000167C  XG$DrawPlayer$0$0                  player
     0000167D  A$GameTitle$76                     GameTitle
     0000167D  C$GameTitle.c$91$0_0$164           GameTitle
     0000167D  G$GameTitleSetup$0$0               GameTitle
     0000167D  _GameTitleSetup                    GameTitle
     0000167E  A$GameTitle$77                     GameTitle
     00001680  A$GameTitle$78                     GameTitle
     00001681  A$GameTitle$79                     GameTitle
     00001683  A$GameTitle$83                     GameTitle
     00001683  C$GameTitle.c$94$1_0$164           GameTitle
     00001685  A$GameTitle$84                     GameTitle
     00001687  A$GameTitle$88                     GameTitle
     00001687  C$GameTitle.c$95$1_0$164           GameTitle
     00001689  A$GameTitle$89                     GameTitle
     0000168B  A$GameTitle$93                     GameTitle
     0000168B  C$GameTitle.c$96$1_0$164           GameTitle
     0000168D  A$GameTitle$94                     GameTitle
     0000168F  A$GameTitle$95                     GameTitle
     00001691  A$GameTitle$99                     GameTitle
ASxxxx Linker V03.00/V05.40 + sdld,  page 13.
Hexadecimal  [32-Bits]

Area                                    Addr        Size        Decimal Bytes (Attributes)
--------------------------------        ----        ----        ------- ----- ------------
_CODE                               00000200    0000601F =       24607. bytes (REL,CON)

      Value  Global                              Global Defined In Module
      -----  --------------------------------   ------------------------
     00001691  C$GameTitle.c$97$1_0$164           GameTitle
     00001694  A$GameTitle$100                    GameTitle
     00001695  A$GameTitle$101                    GameTitle
     00001698  A$GameTitle$102                    GameTitle
     00001699  A$GameTitle$103                    GameTitle
     0000169C  A$GameTitle$104                    GameTitle
     0000169E  A$GameTitle$108                    GameTitle
     0000169E  C$GameTitle.c$98$1_0$164           GameTitle
     000016A1  A$GameTitle$109                    GameTitle
     000016A2  A$GameTitle$110                    GameTitle
     000016A5  A$GameTitle$111                    GameTitle
     000016A6  A$GameTitle$112                    GameTitle
     000016A7  A$GameTitle$113                    GameTitle
     000016A8  A$GameTitle$114                    GameTitle
     000016A9  A$GameTitle$115                    GameTitle
     000016AC  A$GameTitle$116                    GameTitle
     000016AE  A$GameTitle$120                    GameTitle
     000016AE  C$GameTitle.c$99$1_0$164           GameTitle
     000016B1  A$GameTitle$121                    GameTitle
     000016B2  A$GameTitle$122                    GameTitle
     000016B5  A$GameTitle$123                    GameTitle
     000016B6  A$GameTitle$124                    GameTitle
     000016B9  A$GameTitle$125                    GameTitle
     000016BB  A$GameTitle$127                    GameTitle
     000016BE  A$GameTitle$128                    GameTitle
     000016BF  A$GameTitle$129                    GameTitle
     000016C0  A$GameTitle$130                    GameTitle
     000016C1  A$GameTitle$132                    GameTitle
     000016C4  A$GameTitle$133                    GameTitle
     000016C5  A$GameTitle$134                    GameTitle
     000016C6  A$GameTitle$135                    GameTitle
     000016C7  A$GameTitle$137                    GameTitle
     000016CA  A$GameTitle$138                    GameTitle
     000016CC  A$GameTitle$140                    GameTitle
     000016CF  A$GameTitle$141                    GameTitle
     000016D1  A$GameTitle$143                    GameTitle
     000016D4  A$GameTitle$144                    GameTitle
     000016D5  A$GameTitle$145                    GameTitle
     000016D8  A$GameTitle$149                    GameTitle
     000016D8  C$GameTitle.c$101$1_0$164          GameTitle
     000016DA  A$GameTitle$150                    GameTitle
     000016DC  A$GameTitle$151                    GameTitle
     000016DE  A$GameTitle$155                    GameTitle
     000016DE  C$GameTitle.c$102$1_0$164          GameTitle
     000016E0  A$GameTitle$156                    GameTitle
     000016E2  A$GameTitle$157                    GameTitle
     000016E4  A$GameTitle$161                    GameTitle
     000016E4  C$GameTitle.c$103$1_0$164          GameTitle
     000016E6  A$GameTitle$169                    GameTitle
     000016E6  C$GameTitle.c$104$1_0$164          GameTitle
     000016E6  XG$GameTitleSetup$0$0              GameTitle
ASxxxx Linker V03.00/V05.40 + sdld,  page 14.
Hexadecimal  [32-Bits]

Area                                    Addr        Size        Decimal Bytes (Attributes)
--------------------------------        ----        ----        ------- ----- ------------
_CODE                               00000200    0000601F =       24607. bytes (REL,CON)

      Value  Global                              Global Defined In Module
      -----  --------------------------------   ------------------------
     000016E9  G$globe1$0_0$0                     GameTitle
     000016E9  _globe1                            GameTitle
     0000170D  G$globe2$0_0$0                     GameTitle
     0000170D  _globe2                            GameTitle
     00001731  G$globe3$0_0$0                     GameTitle
     00001731  _globe3                            GameTitle
     00001755  G$globe4$0_0$0                     GameTitle
     00001755  _globe4                            GameTitle
     00001779  G$globe5$0_0$0                     GameTitle
     00001779  _globe5                            GameTitle
     0000179D  G$globe6$0_0$0                     GameTitle
     0000179D  _globe6                            GameTitle
     000017C1  G$globe7$0_0$0                     GameTitle
     000017C1  _globe7                            GameTitle
     000017E5  G$globe_metasprites$0_0$0          GameTitle
     000017E5  _globe_metasprites                 GameTitle
     000017F3  A$GameTitle$457                    GameTitle
     000017F3  C$GameTitle.c$108$1_0$172          GameTitle
     000017F3  C$GameTitle.c$110$1_0$172          GameTitle
     000017F3  G$GameTitleUpdate$0$0              GameTitle
     000017F3  _GameTitleUpdate                   GameTitle
     000017F6  A$GameTitle$458                    GameTitle
     000017F9  A$GameTitle$462                    GameTitle
     000017F9  C$GameTitle.c$111$1_0$172          GameTitle
     000017FC  A$GameTitle$463                    GameTitle
     000017FF  A$GameTitle$467                    GameTitle
     000017FF  C$GameTitle.c$112$1_0$172          GameTitle
     00001802  A$GameTitle$468                    GameTitle
     00001803  A$GameTitle$472                    GameTitle
     00001803  C$GameTitle.c$113$1_0$172          GameTitle
     00001804  A$GameTitle$473                    GameTitle
     00001806  A$GameTitle$474                    GameTitle
     00001808  A$GameTitle$478                    GameTitle
     00001808  C$GameTitle.c$115$2_0$173          GameTitle
     0000180B  A$GameTitle$479                    GameTitle
     0000180C  A$GameTitle$483                    GameTitle
     0000180C  C$GameTitle.c$116$2_0$173          GameTitle
     0000180F  A$GameTitle$484                    GameTitle
     00001811  A$GameTitle$489                    GameTitle
     00001811  C$GameTitle.c$118$1_0$172          GameTitle
     00001814  A$GameTitle$490                    GameTitle
     00001815  A$GameTitle$491                    GameTitle
     00001817  A$GameTitle$492                    GameTitle
     00001819  A$GameTitle$493                    GameTitle
     0000181B  A$GameTitle$496                    GameTitle
     0000181E  A$GameTitle$497                    GameTitle
     00001821  A$GameTitle$498                    GameTitle
     00001822  A$GameTitle$501                    GameTitle
     00001823  A$GameTitle$502                    GameTitle
     00001824  A$GameTitle$503                    GameTitle
     00001825  A$GameTitle$504                    GameTitle
ASxxxx Linker V03.00/V05.40 + sdld,  page 15.
Hexadecimal  [32-Bits]

Area                                    Addr        Size        Decimal Bytes (Attributes)
--------------------------------        ----        ----        ------- ----- ------------
_CODE                               00000200    0000601F =       24607. bytes (REL,CON)

      Value  Global                              Global Defined In Module
      -----  --------------------------------   ------------------------
     00001826  A$GameTitle$505                    GameTitle
     00001827  A$GameTitle$506                    GameTitle
     00001828  A$GameTitle$509                    GameTitle
     00001829  A$GameTitle$510                    GameTitle
     0000182A  A$GameTitle$511                    GameTitle
     0000182D  A$GameTitle$512                    GameTitle
     0000182E  A$GameTitle$513                    GameTitle
     0000182F  A$GameTitle$514                    GameTitle
     00001830  A$GameTitle$516                    GameTitle
     00001833  A$GameTitle$517                    GameTitle
     00001835  A$GameTitle$519                    GameTitle
     00001838  A$GameTitle$520                    GameTitle
     0000183A  A$GameTitle$522                    GameTitle
     0000183B  A$GameTitle$523                    GameTitle
     0000183E  A$GameTitle$524                    GameTitle
     0000183F  A$GameTitle$525                    GameTitle
     00001842  A$GameTitle$526                    GameTitle
     00001843  A$GameTitle$530                    GameTitle
     00001843  C$GameTitle.c$120$1_0$172          GameTitle
     00001846  A$GameTitle$531                    GameTitle
     00001847  A$GameTitle$532                    GameTitle
     00001849  A$GameTitle$533                    GameTitle
     0000184B  A$GameTitle$537                    GameTitle
     0000184B  C$GameTitle.c$122$2_0$174          GameTitle
     0000184C  A$GameTitle$538                    GameTitle
     0000184E  A$GameTitle$539                    GameTitle
     00001851  A$GameTitle$540                    GameTitle
     00001852  A$GameTitle$542                    GameTitle
     00001855  A$GameTitle$543                    GameTitle
     00001856  A$GameTitle$546                    GameTitle
     00001857  A$GameTitle$547                    GameTitle
     00001858  A$GameTitle$548                    GameTitle
     00001859  A$GameTitle$549                    GameTitle
     0000185A  A$GameTitle$550                    GameTitle
     0000185B  A$GameTitle$551                    GameTitle
     0000185C  A$GameTitle$553                    GameTitle
     0000185F  A$GameTitle$554                    GameTitle
     00001860  A$GameTitle$555                    GameTitle
     00001861  A$GameTitle$557                    GameTitle
     00001864  A$GameTitle$558                    GameTitle
     00001866  A$GameTitle$560                    GameTitle
     00001869  A$GameTitle$561                    GameTitle
     0000186B  A$GameTitle$563                    GameTitle
     0000186E  A$GameTitle$564                    GameTitle
     0000186F  A$GameTitle$565                    GameTitle
     00001872  A$GameTitle$569                    GameTitle
     00001872  C$GameTitle.c$124$2_0$174          GameTitle
     00001874  A$GameTitle$570                    GameTitle
     00001875  A$GameTitle$575                    GameTitle
     00001875  C$GameTitle.c$126$1_0$172          GameTitle
     00001877  A$GameTitle$576                    GameTitle
ASxxxx Linker V03.00/V05.40 + sdld,  page 16.
Hexadecimal  [32-Bits]

Area                                    Addr        Size        Decimal Bytes (Attributes)
--------------------------------        ----        ----        ------- ----- ------------
_CODE                               00000200    0000601F =       24607. bytes (REL,CON)

      Value  Global                              Global Defined In Module
      -----  --------------------------------   ------------------------
     00001879  A$GameTitle$580                    GameTitle
     00001879  C$GameTitle.c$128$2_0$175          GameTitle
     0000187A  A$GameTitle$581                    GameTitle
     0000187C  A$GameTitle$582                    GameTitle
     0000187F  A$GameTitle$583                    GameTitle
     00001880  A$GameTitle$585                    GameTitle
     00001883  A$GameTitle$586                    GameTitle
     00001884  A$GameTitle$589                    GameTitle
     00001886  A$GameTitle$592                    GameTitle
     00001887  A$GameTitle$593                    GameTitle
     00001888  A$GameTitle$594                    GameTitle
     00001889  A$GameTitle$595                    GameTitle
     0000188A  A$GameTitle$597                    GameTitle
     0000188D  A$GameTitle$598                    GameTitle
     0000188E  A$GameTitle$599                    GameTitle
     0000188F  A$GameTitle$601                    GameTitle
     00001892  A$GameTitle$602                    GameTitle
     00001894  A$GameTitle$604                    GameTitle
     00001897  A$GameTitle$605                    GameTitle
     00001899  A$GameTitle$607                    GameTitle
     0000189C  A$GameTitle$608                    GameTitle
     0000189D  A$GameTitle$609                    GameTitle
     000018A0  A$GameTitle$613                    GameTitle
     000018A0  C$GameTitle.c$130$2_0$175          GameTitle
     000018A2  A$GameTitle$614                    GameTitle
     000018A3  A$GameTitle$619                    GameTitle
     000018A3  C$GameTitle.c$132$1_0$172          GameTitle
     000018A5  A$GameTitle$620                    GameTitle
     000018A7  A$GameTitle$624                    GameTitle
     000018A7  C$GameTitle.c$134$2_0$176          GameTitle
     000018A8  A$GameTitle$625                    GameTitle
     000018AA  A$GameTitle$626                    GameTitle
     000018AD  A$GameTitle$627                    GameTitle
     000018AF  A$GameTitle$628                    GameTitle
     000018B2  A$GameTitle$629                    GameTitle
     000018B4  A$GameTitle$630                    GameTitle
     000018B7  A$GameTitle$631                    GameTitle
     000018B9  A$GameTitle$632                    GameTitle
     000018BC  A$GameTitle$633                    GameTitle
     000018BE  A$GameTitle$634                    GameTitle
     000018C1  A$GameTitle$635                    GameTitle
     000018C2  A$GameTitle$637                    GameTitle
     000018C5  A$GameTitle$638                    GameTitle
     000018C6  A$GameTitle$641                    GameTitle
     000018C7  A$GameTitle$642                    GameTitle
     000018C8  A$GameTitle$643                    GameTitle
     000018C9  A$GameTitle$644                    GameTitle
     000018CA  A$GameTitle$645                    GameTitle
     000018CB  A$GameTitle$646                    GameTitle
     000018CC  A$GameTitle$648                    GameTitle
     000018CF  A$GameTitle$649                    GameTitle
ASxxxx Linker V03.00/V05.40 + sdld,  page 17.
Hexadecimal  [32-Bits]

Area                                    Addr        Size        Decimal Bytes (Attributes)
--------------------------------        ----        ----        ------- ----- ------------
_CODE                               00000200    0000601F =       24607. bytes (REL,CON)

      Value  Global                              Global Defined In Module
      -----  --------------------------------   ------------------------
     000018D0  A$GameTitle$650                    GameTitle
     000018D1  A$GameTitle$652                    GameTitle
     000018D4  A$GameTitle$653                    GameTitle
     000018D6  A$GameTitle$655                    GameTitle
     000018D9  A$GameTitle$656                    GameTitle
     000018DB  A$GameTitle$658                    GameTitle
     000018DE  A$GameTitle$659                    GameTitle
     000018DF  A$GameTitle$660                    GameTitle
     000018E2  A$GameTitle$664                    GameTitle
     000018E2  C$GameTitle.c$140$2_0$176          GameTitle
     000018E4  A$GameTitle$665                    GameTitle
     000018E5  A$GameTitle$670                    GameTitle
     000018E5  C$GameTitle.c$142$1_0$172          GameTitle
     000018E7  A$GameTitle$671                    GameTitle
     000018E9  A$GameTitle$675                    GameTitle
     000018E9  C$GameTitle.c$144$2_0$177          GameTitle
     000018EA  A$GameTitle$676                    GameTitle
     000018EC  A$GameTitle$677                    GameTitle
     000018EF  A$GameTitle$678                    GameTitle
     000018F0  A$GameTitle$680                    GameTitle
     000018F3  A$GameTitle$681                    GameTitle
     000018F4  A$GameTitle$684                    GameTitle
     000018F5  A$GameTitle$685                    GameTitle
     000018F6  A$GameTitle$686                    GameTitle
     000018F7  A$GameTitle$687                    GameTitle
     000018F8  A$GameTitle$688                    GameTitle
     000018F9  A$GameTitle$689                    GameTitle
     000018FA  A$GameTitle$691                    GameTitle
     000018FD  A$GameTitle$692                    GameTitle
     000018FE  A$GameTitle$693                    GameTitle
     000018FF  A$GameTitle$695                    GameTitle
     00001902  A$GameTitle$696                    GameTitle
     00001904  A$GameTitle$698                    GameTitle
     00001907  A$GameTitle$699                    GameTitle
     00001909  A$GameTitle$701                    GameTitle
     0000190C  A$GameTitle$702                    GameTitle
     0000190D  A$GameTitle$703                    GameTitle
     00001910  A$GameTitle$707                    GameTitle
     00001910  C$GameTitle.c$146$2_0$177          GameTitle
     00001912  A$GameTitle$708                    GameTitle
     00001913  A$GameTitle$713                    GameTitle
     00001913  C$GameTitle.c$149$1_0$172          GameTitle
     00001915  A$GameTitle$721                    GameTitle
     00001915  C$GameTitle.c$150$1_0$172          GameTitle
     00001915  XG$GameTitleUpdate$0$0             GameTitle
     00001916  G$Globe_Tiles$0_0$0                Globe_Tiles
     00001916  _Globe_Tiles                       Globe_Tiles
     00002016  G$Title_Map$0_0$0                  Title_Map
     00002016  _Title_Map                         Title_Map
     0000217E  G$TitleLabel$0_0$0                 Title_Tiles
     0000217E  _TitleLabel                        Title_Tiles
ASxxxx Linker V03.00/V05.40 + sdld,  page 18.
Hexadecimal  [32-Bits]

Area                                    Addr        Size        Decimal Bytes (Attributes)
--------------------------------        ----        ----        ------- ----- ------------
_CODE                               00000200    0000601F =       24607. bytes (REL,CON)

      Value  Global                              Global Defined In Module
      -----  --------------------------------   ------------------------
     0000249E  A$common$80                        common
     0000249E  C$common.c$13$0_0$164              common
     0000249E  G$performantdelay$0$0              common
     0000249E  _performantdelay                   common
     0000249F  A$common$84                        common
     000024A1  A$common$86                        common
     000024A2  A$common$87                        common
     000024A3  A$common$88                        common
     000024A4  A$common$92                        common
     000024A4  C$common.c$17$3_0$165              common
     000024A7  A$common$96                        common
     000024A7  C$common.c$15$2_0$164              common
     000024A8  A$common$104                       common
     000024A8  C$common.c$19$2_0$164              common
     000024A8  XG$performantdelay$0$0             common
     000024AA  A$common$114                       common
     000024AA  C$common.c$22$2_0$167              common
     000024AA  G$DrawNumber$0$0                   common
     000024AA  _DrawNumber                        common
     000024AC  A$common$115                       common
     000024AD  A$common$116                       common
     000024AE  A$common$120                       common
     000024AE  C$common.c$24$2_0$167              common
     000024B0  A$common$121                       common
     000024B2  A$common$122                       common
     000024B3  A$common$123                       common
     000024B4  A$common$124                       common
     000024B6  A$common$125                       common
     000024B7  A$common$126                       common
     000024B8  A$common$127                       common
     000024BA  A$common$128                       common
     000024BB  A$common$129                       common
     000024BC  A$common$130                       common
     000024BE  A$common$131                       common
     000024BF  A$common$132                       common
     000024C1  A$common$136                       common
     000024C1  C$common.c$27$1_0$167              common
     000024C3  A$common$137                       common
     000024C4  A$common$138                       common
     000024C5  A$common$139                       common
     000024C6  A$common$140                       common
     000024C7  A$common$141                       common
     000024C9  A$common$142                       common
     000024CA  A$common$143                       common
     000024CB  A$common$144                       common
     000024CE  A$common$145                       common
     000024CF  A$common$146                       common
     000024D0  A$common$147                       common
     000024D1  A$common$148                       common
     000024D4  A$common$149                       common
     000024D6  A$common$150                       common
ASxxxx Linker V03.00/V05.40 + sdld,  page 19.
Hexadecimal  [32-Bits]

Area                                    Addr        Size        Decimal Bytes (Attributes)
--------------------------------        ----        ----        ------- ----- ------------
_CODE                               00000200    0000601F =       24607. bytes (REL,CON)

      Value  Global                              Global Defined In Module
      -----  --------------------------------   ------------------------
     000024D7  A$common$154                       common
     000024D7  C$common.c$31$1_1$168              common
     000024D9  A$common$155                       common
     000024DA  A$common$156                       common
     000024DB  A$common$157                       common
     000024DD  A$common$161                       common
     000024DD  C$common.c$33$2_1$169              common
     000024DE  A$common$162                       common
     000024DF  A$common$163                       common
     000024E0  A$common$164                       common
     000024E1  A$common$165                       common
     000024E2  A$common$166                       common
     000024E5  A$common$167                       common
     000024E6  A$common$168                       common
     000024E7  A$common$169                       common
     000024E8  A$common$170                       common
     000024EA  A$common$175                       common
     000024EA  C$common.c$36$2_1$170              common
     000024EB  A$common$176                       common
     000024EC  A$common$177                       common
     000024ED  A$common$178                       common
     000024EE  A$common$179                       common
     000024EF  A$common$180                       common
     000024F2  A$common$181                       common
     000024F3  A$common$182                       common
     000024F4  A$common$183                       common
     000024F5  A$common$188                       common
     000024F5  C$common.c$40$1_2$171              common
     000024F8  A$common$189                       common
     000024F9  A$common$190                       common
     000024FA  A$common$191                       common
     000024FD  A$common$192                       common
     000024FE  A$common$193                       common
     00002500  A$common$194                       common
     00002501  A$common$198                       common
     00002501  C$common.c$45$2_2$167              common
     00002503  A$common$199                       common
     00002505  A$common$201                       common
     00002507  A$common$202                       common
     00002508  A$common$203                       common
     0000250A  A$common$204                       common
     0000250B  A$common$205                       common
     0000250C  A$common$206                       common
     0000250D  A$common$207                       common
     0000250E  A$common$208                       common
     0000250F  A$common$209                       common
     00002511  A$common$210                       common
     00002512  A$common$211                       common
     00002513  A$common$212                       common
     00002514  A$common$213                       common
     00002515  A$common$214                       common
ASxxxx Linker V03.00/V05.40 + sdld,  page 20.
Hexadecimal  [32-Bits]

Area                                    Addr        Size        Decimal Bytes (Attributes)
--------------------------------        ----        ----        ------- ----- ------------
_CODE                               00000200    0000601F =       24607. bytes (REL,CON)

      Value  Global                              Global Defined In Module
      -----  --------------------------------   ------------------------
     00002516  A$common$215                       common
     00002517  A$common$216                       common
     00002518  A$common$217                       common
     00002519  A$common$218                       common
     0000251A  A$common$219                       common
     0000251B  A$common$220                       common
     0000251C  A$common$221                       common
     0000251D  A$common$222                       common
     0000251E  A$common$223                       common
     0000251F  A$common$224                       common
     00002520  A$common$225                       common
     00002521  A$common$226                       common
     00002522  A$common$227                       common
     00002524  A$common$228                       common
     00002525  A$common$229                       common
     00002526  A$common$230                       common
     00002527  A$common$231                       common
     00002528  A$common$232                       common
     00002529  A$common$233                       common
     0000252B  A$common$234                       common
     0000252C  A$common$235                       common
     0000252E  A$common$236                       common
     00002530  A$common$237                       common
     00002531  A$common$238                       common
     00002532  A$common$239                       common
     00002534  A$common$240                       common
     00002535  A$common$241                       common
     00002536  A$common$242                       common
     00002537  A$common$243                       common
     00002538  A$common$244                       common
     00002539  A$common$245                       common
     0000253A  A$common$246                       common
     0000253B  A$common$247                       common
     0000253C  A$common$248                       common
     0000253E  A$common$249                       common
     00002540  A$common$250                       common
     00002542  A$common$251                       common
     00002544  A$common$252                       common
     00002545  A$common$253                       common
     00002547  A$common$255                       common
     00002549  A$common$256                       common
     0000254B  A$common$257                       common
     0000254C  A$common$259                       common
     0000254E  A$common$263                       common
     0000254E  C$common.c$47$3_2$173              common
     0000254F  A$common$266                       common
     00002550  A$common$267                       common
     00002551  A$common$268                       common
     00002553  A$common$269                       common
     00002554  A$common$270                       common
     00002557  A$common$274                       common
ASxxxx Linker V03.00/V05.40 + sdld,  page 21.
Hexadecimal  [32-Bits]

Area                                    Addr        Size        Decimal Bytes (Attributes)
--------------------------------        ----        ----        ------- ----- ------------
_CODE                               00000200    0000601F =       24607. bytes (REL,CON)

      Value  Global                              Global Defined In Module
      -----  --------------------------------   ------------------------
     00002557  C$common.c$45$2_2$172              common
     00002559  A$common$275                       common
     0000255A  A$common$276                       common
     0000255C  A$common$281                       common
     0000255C  C$common.c$52$2_2$167              common
     0000255E  A$common$283                       common
     0000255F  A$common$284                       common
     00002561  A$common$285                       common
     00002562  A$common$286                       common
     00002564  A$common$290                       common
     00002564  C$common.c$54$3_2$175              common
     00002565  A$common$291                       common
     00002567  A$common$292                       common
     0000256A  A$common$293                       common
     0000256B  A$common$294                       common
     0000256C  A$common$295                       common
     0000256D  A$common$296                       common
     0000256E  A$common$297                       common
     00002570  A$common$298                       common
     00002571  A$common$301                       common
     00002572  A$common$304                       common
     00002573  A$common$305                       common
     00002574  A$common$306                       common
     00002575  A$common$307                       common
     00002576  A$common$308                       common
     00002577  A$common$309                       common
     0000257A  A$common$310                       common
     0000257B  A$common$314                       common
     0000257B  C$common.c$52$2_2$174              common
     0000257C  A$common$315                       common
     0000257E  A$common$320                       common
     0000257E  C$common.c$56$2_2$167              common
     00002580  A$common$321                       common
     00002581  A$common$322                       common
     00002583  A$common$323                       common
     00002584  A$common$333                       common
     00002584  C$common.c$58$2_2$177              common
     00002584  G$DrawText$0$0                     common
     00002584  _DrawText                          common
     00002586  A$common$334                       common
     00002587  A$common$335                       common
     00002588  A$common$339                       common
     00002588  C$common.c$65$1_0$177              common
     0000258A  A$common$340                       common
     0000258B  A$common$341                       common
     0000258C  A$common$342                       common
     0000258E  A$common$346                       common
     0000258E  C$common.c$67$2_0$178              common
     0000258F  A$common$347                       common
     00002590  A$common$348                       common
     00002593  A$common$349                       common
ASxxxx Linker V03.00/V05.40 + sdld,  page 22.
Hexadecimal  [32-Bits]

Area                                    Addr        Size        Decimal Bytes (Attributes)
--------------------------------        ----        ----        ------- ----- ------------
_CODE                               00000200    0000601F =       24607. bytes (REL,CON)

      Value  Global                              Global Defined In Module
      -----  --------------------------------   ------------------------
     00002595  A$common$350                       common
     00002596  A$common$351                       common
     00002598  A$common$356                       common
     00002598  C$common.c$70$2_0$179              common
     00002599  A$common$357                       common
     0000259A  A$common$358                       common
     0000259D  A$common$359                       common
     0000259F  A$common$360                       common
     000025A0  A$common$365                       common
     000025A2  A$common$367                       common
     000025A4  A$common$368                       common
     000025A5  A$common$369                       common
     000025A6  A$common$370                       common
     000025A7  A$common$371                       common
     000025A8  A$common$372                       common
     000025AA  A$common$373                       common
     000025AB  A$common$374                       common
     000025AC  A$common$375                       common
     000025AD  A$common$379                       common
     000025AD  C$common.c$78$1_0$177              common
     000025AE  A$common$383                       common
     000025AE  C$common.c$73$1_0$177              common
     000025AF  A$common$384                       common
     000025B0  A$common$385                       common
     000025B3  A$common$389                       common
     000025B3  C$common.c$77$1_0$177              common
     000025B4  A$common$390                       common
     000025B5  A$common$391                       common
     000025B6  A$common$392                       common
     000025B7  A$common$393                       common
     000025B8  A$common$394                       common
     000025B9  A$common$395                       common
     000025BA  A$common$396                       common
     000025BC  A$common$397                       common
     000025BD  A$common$398                       common
     000025BE  A$common$399                       common
     000025BF  A$common$400                       common
     000025C1  A$common$401                       common
     000025C2  A$common$402                       common
     000025C3  A$common$403                       common
     000025C4  A$common$404                       common
     000025C6  A$common$405                       common
     000025C8  A$common$406                       common
     000025CA  A$common$407                       common
     000025CB  A$common$408                       common
     000025CD  A$common$409                       common
     000025CE  A$common$410                       common
     000025CF  A$common$411                       common
     000025D1  A$common$412                       common
     000025D2  A$common$413                       common
     000025D3  A$common$414                       common
ASxxxx Linker V03.00/V05.40 + sdld,  page 23.
Hexadecimal  [32-Bits]

Area                                    Addr        Size        Decimal Bytes (Attributes)
--------------------------------        ----        ----        ------- ----- ------------
_CODE                               00000200    0000601F =       24607. bytes (REL,CON)

      Value  Global                              Global Defined In Module
      -----  --------------------------------   ------------------------
     000025D4  A$common$415                       common
     000025D5  A$common$416                       common
     000025D6  A$common$417                       common
     000025D7  A$common$418                       common
     000025D9  A$common$419                       common
     000025DA  A$common$420                       common
     000025DB  A$common$421                       common
     000025DC  A$common$422                       common
     000025DD  A$common$423                       common
     000025E0  A$common$424                       common
     000025E3  A$common$429                       common
     000025E3  C$common.c$78$2_0$180              common
     000025E4  A$common$430                       common
     000025E6  A$common$431                       common
     000025E8  A$common$432                       common
     000025EA  A$common$433                       common
     000025EB  A$common$434                       common
     000025ED  A$common$435                       common
     000025EE  A$common$436                       common
     000025F0  A$common$437                       common
     000025F1  A$common$438                       common
     000025F2  A$common$439                       common
     000025F3  A$common$440                       common
     000025F5  A$common$441                       common
     000025F6  A$common$442                       common
     000025F7  A$common$443                       common
     000025F8  A$common$444                       common
     000025FA  A$common$445                       common
     000025FB  A$common$446                       common
     000025FC  A$common$447                       common
     000025FD  A$common$448                       common
     000025FE  A$common$449                       common
     00002601  A$common$450                       common
     00002603  A$common$455                       common
     00002603  C$common.c$79$2_0$180              common
     00002604  A$common$456                       common
     00002606  A$common$457                       common
     00002608  A$common$458                       common
     0000260A  A$common$459                       common
     0000260B  A$common$460                       common
     0000260D  A$common$461                       common
     0000260E  A$common$462                       common
     00002610  A$common$463                       common
     00002611  A$common$464                       common
     00002612  A$common$465                       common
     00002613  A$common$466                       common
     00002615  A$common$467                       common
     00002616  A$common$468                       common
     00002617  A$common$469                       common
     00002618  A$common$470                       common
     0000261A  A$common$471                       common
ASxxxx Linker V03.00/V05.40 + sdld,  page 24.
Hexadecimal  [32-Bits]

Area                                    Addr        Size        Decimal Bytes (Attributes)
--------------------------------        ----        ----        ------- ----- ------------
_CODE                               00000200    0000601F =       24607. bytes (REL,CON)

      Value  Global                              Global Defined In Module
      -----  --------------------------------   ------------------------
     0000261B  A$common$472                       common
     0000261C  A$common$473                       common
     0000261D  A$common$474                       common
     0000261E  A$common$475                       common
     00002621  A$common$476                       common
     00002623  A$common$481                       common
     00002623  C$common.c$85$3_0$181              common
     00002624  A$common$482                       common
     00002626  A$common$483                       common
     00002628  A$common$484                       common
     0000262A  A$common$485                       common
     0000262C  A$common$486                       common
     0000262E  A$common$487                       common
     00002630  A$common$491                       common
     00002630  C$common.c$86$4_0$182              common
     00002631  A$common$492                       common
     00002632  A$common$493                       common
     00002634  A$common$494                       common
     00002635  A$common$495                       common
     00002636  A$common$496                       common
     00002637  A$common$497                       common
     00002639  A$common$498                       common
     0000263A  A$common$499                       common
     0000263B  A$common$500                       common
     0000263C  A$common$501                       common
     0000263E  A$common$502                       common
     00002641  A$common$503                       common
     00002643  A$common$508                       common
     00002643  C$common.c$87$4_0$182              common
     00002644  A$common$509                       common
     00002645  A$common$510                       common
     00002647  A$common$511                       common
     00002648  A$common$512                       common
     00002649  A$common$513                       common
     0000264A  A$common$514                       common
     0000264C  A$common$515                       common
     0000264D  A$common$516                       common
     0000264E  A$common$517                       common
     0000264F  A$common$518                       common
     00002651  A$common$519                       common
     00002654  A$common$520                       common
     00002656  A$common$525                       common
     00002656  C$common.c$88$4_0$182              common
     00002657  A$common$526                       common
     00002658  A$common$527                       common
     0000265A  A$common$528                       common
     0000265B  A$common$529                       common
     0000265C  A$common$530                       common
     0000265D  A$common$531                       common
     0000265F  A$common$532                       common
     00002660  A$common$533                       common
ASxxxx Linker V03.00/V05.40 + sdld,  page 25.
Hexadecimal  [32-Bits]

Area                                    Addr        Size        Decimal Bytes (Attributes)
--------------------------------        ----        ----        ------- ----- ------------
_CODE                               00000200    0000601F =       24607. bytes (REL,CON)

      Value  Global                              Global Defined In Module
      -----  --------------------------------   ------------------------
     00002661  A$common$534                       common
     00002662  A$common$535                       common
     00002664  A$common$536                       common
     00002667  A$common$537                       common
     00002669  A$common$542                       common
     00002669  C$common.c$89$4_0$182              common
     0000266B  A$common$543                       common
     0000266C  A$common$544                       common
     0000266D  A$common$545                       common
     0000266E  A$common$546                       common
     00002670  A$common$547                       common
     00002671  A$common$548                       common
     00002672  A$common$549                       common
     00002673  A$common$557                       common
     00002673  C$common.c$90$2_0$180              common
     00002673  C$common.c$94$2_0$180              common
     00002674  A$common$558                       common
     00002677  A$common$563                       common
     00002677  C$common.c$96$1_0$177              common
     00002679  A$common$564                       common
     0000267B  A$common$568                       common
     0000267B  C$common.c$98$1_0$177              common
     0000267D  A$common$569                       common
     0000267E  A$common$570                       common
     00002680  A$common$571                       common
     00002681  A$common$581                       common
     00002681  C$common.c$101$1_0$185             common
     00002681  G$fadeToBlack$0$0                  common
     00002681  _fadeToBlack                       common
     00002682  A$common$585                       common
     00002684  A$common$587                       common
     00002685  A$common$588                       common
     00002687  A$common$589                       common
     00002688  A$common$593                       common
     00002688  C$common.c$105$3_0$186             common
     00002689  A$common$594                       common
     0000268A  A$common$595                       common
     0000268C  A$common$596                       common
     0000268D  A$common$597                       common
     0000268E  A$common$598                       common
     00002690  A$common$599                       common
     00002691  A$common$600                       common
     00002693  A$common$601                       common
     00002695  A$common$602                       common
     00002697  A$common$603                       common
     00002699  A$common$604                       common
     0000269B  A$common$612                       common
     0000269B  C$common.c$107$4_0$187             common
     0000269B  C$common.c$108$4_0$187             common
     0000269D  A$common$613                       common
     0000269F  A$common$617                       common
ASxxxx Linker V03.00/V05.40 + sdld,  page 26.
Hexadecimal  [32-Bits]

Area                                    Addr        Size        Decimal Bytes (Attributes)
--------------------------------        ----        ----        ------- ----- ------------
_CODE                               00000200    0000601F =       24607. bytes (REL,CON)

      Value  Global                              Global Defined In Module
      -----  --------------------------------   ------------------------
     0000269F  C$common.c$109$4_0$187             common
     000026A1  A$common$618                       common
     000026A3  A$common$622                       common
     000026A3  C$common.c$110$4_0$187             common
     000026A5  A$common$630                       common
     000026A5  C$common.c$111$4_0$187             common
     000026A5  C$common.c$112$4_0$187             common
     000026A7  A$common$631                       common
     000026A9  A$common$635                       common
     000026A9  C$common.c$113$4_0$187             common
     000026AB  A$common$636                       common
     000026AD  A$common$640                       common
     000026AD  C$common.c$114$4_0$187             common
     000026AF  A$common$648                       common
     000026AF  C$common.c$115$4_0$187             common
     000026AF  C$common.c$116$4_0$187             common
     000026B1  A$common$649                       common
     000026B3  A$common$653                       common
     000026B3  C$common.c$117$4_0$187             common
     000026B5  A$common$654                       common
     000026B7  A$common$658                       common
     000026B7  C$common.c$118$4_0$187             common
     000026B9  A$common$666                       common
     000026B9  C$common.c$119$4_0$187             common
     000026B9  C$common.c$120$4_0$187             common
     000026BB  A$common$667                       common
     000026BD  A$common$671                       common
     000026BD  C$common.c$121$4_0$187             common
     000026BF  A$common$672                       common
     000026C1  A$common$680                       common
     000026C1  C$common.c$123$3_0$186             common
     000026C1  C$common.c$124$3_0$186             common
     000026C2  A$common$681                       common
     000026C3  A$common$682                       common
     000026C6  A$common$683                       common
     000026C7  A$common$687                       common
     000026C7  C$common.c$103$2_0$185             common
     000026C8  A$common$695                       common
     000026C8  C$common.c$126$2_0$185             common
     000026C8  XG$fadeToBlack$0$0                 common
     000026CA  A$common$705                       common
     000026CA  C$common.c$128$2_0$190             common
     000026CA  G$fadeFromBlack$0$0                common
     000026CA  _fadeFromBlack                     common
     000026CB  A$common$709                       common
     000026CD  A$common$711                       common
     000026CE  A$common$712                       common
     000026D0  A$common$713                       common
     000026D1  A$common$717                       common
     000026D1  C$common.c$132$3_0$191             common
     000026D2  A$common$718                       common
ASxxxx Linker V03.00/V05.40 + sdld,  page 27.
Hexadecimal  [32-Bits]

Area                                    Addr        Size        Decimal Bytes (Attributes)
--------------------------------        ----        ----        ------- ----- ------------
_CODE                               00000200    0000601F =       24607. bytes (REL,CON)

      Value  Global                              Global Defined In Module
      -----  --------------------------------   ------------------------
     000026D3  A$common$719                       common
     000026D5  A$common$720                       common
     000026D6  A$common$721                       common
     000026D7  A$common$722                       common
     000026D9  A$common$723                       common
     000026DA  A$common$724                       common
     000026DC  A$common$725                       common
     000026DE  A$common$726                       common
     000026E0  A$common$727                       common
     000026E2  A$common$728                       common
     000026E4  A$common$736                       common
     000026E4  C$common.c$134$4_0$192             common
     000026E4  C$common.c$135$4_0$192             common
     000026E6  A$common$737                       common
     000026E8  A$common$741                       common
     000026E8  C$common.c$136$4_0$192             common
     000026EA  A$common$742                       common
     000026EC  A$common$746                       common
     000026EC  C$common.c$137$4_0$192             common
     000026EE  A$common$754                       common
     000026EE  C$common.c$138$4_0$192             common
     000026EE  C$common.c$139$4_0$192             common
     000026F0  A$common$755                       common
     000026F2  A$common$759                       common
     000026F2  C$common.c$140$4_0$192             common
     000026F4  A$common$760                       common
     000026F6  A$common$764                       common
     000026F6  C$common.c$141$4_0$192             common
     000026F8  A$common$772                       common
     000026F8  C$common.c$142$4_0$192             common
     000026F8  C$common.c$143$4_0$192             common
     000026FA  A$common$773                       common
     000026FC  A$common$777                       common
     000026FC  C$common.c$144$4_0$192             common
     000026FE  A$common$778                       common
     00002700  A$common$782                       common
     00002700  C$common.c$145$4_0$192             common
     00002702  A$common$790                       common
     00002702  C$common.c$146$4_0$192             common
     00002702  C$common.c$147$4_0$192             common
     00002704  A$common$791                       common
     00002706  A$common$795                       common
     00002706  C$common.c$148$4_0$192             common
     00002708  A$common$796                       common
     0000270A  A$common$804                       common
     0000270A  C$common.c$150$3_0$191             common
     0000270A  C$common.c$151$3_0$191             common
     0000270B  A$common$805                       common
     0000270C  A$common$806                       common
     0000270F  A$common$807                       common
     00002710  A$common$811                       common
ASxxxx Linker V03.00/V05.40 + sdld,  page 28.
Hexadecimal  [32-Bits]

Area                                    Addr        Size        Decimal Bytes (Attributes)
--------------------------------        ----        ----        ------- ----- ------------
_CODE                               00000200    0000601F =       24607. bytes (REL,CON)

      Value  Global                              Global Defined In Module
      -----  --------------------------------   ------------------------
     00002710  C$common.c$130$2_0$190             common
     00002711  A$common$819                       common
     00002711  C$common.c$153$2_0$190             common
     00002711  XG$fadeFromBlack$0$0               common
     00002713  A$common$829                       common
     00002713  C$common.c$155$2_0$195             common
     00002713  G$fadeToWhite$0$0                  common
     00002713  _fadeToWhite                       common
     00002714  A$common$833                       common
     00002716  A$common$835                       common
     00002717  A$common$836                       common
     00002719  A$common$837                       common
     0000271A  A$common$841                       common
     0000271A  C$common.c$159$3_0$196             common
     0000271B  A$common$842                       common
     0000271D  A$common$843                       common
     00002720  A$common$844                       common
     00002721  A$common$845                       common
     00002722  A$common$849                       common
     00002722  C$common.c$161$4_0$197             common
     00002723  A$common$851                       common
     00002725  A$common$852                       common
     00002727  A$common$853                       common
     00002729  A$common$854                       common
     0000272B  A$common$855                       common
     0000272D  A$common$860                       common
     0000272D  C$common.c$162$4_0$197             common
     0000272F  A$common$861                       common
     00002731  A$common$865                       common
     00002731  C$common.c$163$4_0$197             common
     00002733  A$common$866                       common
     00002735  A$common$870                       common
     00002735  C$common.c$164$4_0$197             common
     00002737  A$common$878                       common
     00002737  C$common.c$165$4_0$197             common
     00002737  C$common.c$166$4_0$197             common
     00002739  A$common$879                       common
     0000273B  A$common$883                       common
     0000273B  C$common.c$167$4_0$197             common
     0000273D  A$common$884                       common
     0000273F  A$common$888                       common
     0000273F  C$common.c$168$4_0$197             common
     00002741  A$common$896                       common
     00002741  C$common.c$169$4_0$197             common
     00002741  C$common.c$170$4_0$197             common
     00002743  A$common$897                       common
     00002745  A$common$901                       common
     00002745  C$common.c$171$4_0$197             common
     00002747  A$common$902                       common
     00002749  A$common$906                       common
     00002749  C$common.c$172$4_0$197             common
ASxxxx Linker V03.00/V05.40 + sdld,  page 29.
Hexadecimal  [32-Bits]

Area                                    Addr        Size        Decimal Bytes (Attributes)
--------------------------------        ----        ----        ------- ----- ------------
_CODE                               00000200    0000601F =       24607. bytes (REL,CON)

      Value  Global                              Global Defined In Module
      -----  --------------------------------   ------------------------
     0000274B  A$common$914                       common
     0000274B  C$common.c$173$4_0$197             common
     0000274B  C$common.c$174$4_0$197             common
     0000274D  A$common$915                       common
     0000274F  A$common$919                       common
     0000274F  C$common.c$175$4_0$197             common
     00002751  A$common$920                       common
     00002753  A$common$924                       common
     00002753  C$common.c$176$4_0$197             common
     00002755  A$common$932                       common
     00002755  C$common.c$177$4_0$197             common
     00002755  C$common.c$178$4_0$197             common
     00002756  A$common$933                       common
     00002758  A$common$937                       common
     00002758  C$common.c$179$4_0$197             common
     00002759  A$common$938                       common
     0000275B  A$common$946                       common
     0000275B  C$common.c$181$3_0$196             common
     0000275B  C$common.c$182$3_0$196             common
     0000275C  A$common$947                       common
     0000275D  A$common$948                       common
     00002760  A$common$949                       common
     00002761  A$common$953                       common
     00002761  C$common.c$157$2_0$195             common
     00002762  A$common$961                       common
     00002762  C$common.c$184$2_0$195             common
     00002762  XG$fadeToWhite$0$0                 common
     00002764  A$common$971                       common
     00002764  C$common.c$186$2_0$200             common
     00002764  G$fadeFromWhite$0$0                common
     00002764  _fadeFromWhite                     common
     00002765  A$common$975                       common
     00002767  A$common$977                       common
     00002768  A$common$978                       common
     0000276A  A$common$979                       common
     0000276B  A$common$983                       common
     0000276B  C$common.c$190$3_0$201             common
     0000276C  A$common$984                       common
     0000276D  A$common$985                       common
     0000276F  A$common$986                       common
     00002770  A$common$987                       common
     00002771  A$common$988                       common
     00002773  A$common$989                       common
     00002774  A$common$990                       common
     00002776  A$common$991                       common
     00002778  A$common$992                       common
     0000277A  A$common$993                       common
     0000277C  A$common$994                       common
     0000277E  A$common$1002                      common
     0000277E  C$common.c$192$4_0$202             common
     0000277E  C$common.c$193$4_0$202             common
ASxxxx Linker V03.00/V05.40 + sdld,  page 30.
Hexadecimal  [32-Bits]

Area                                    Addr        Size        Decimal Bytes (Attributes)
--------------------------------        ----        ----        ------- ----- ------------
_CODE                               00000200    0000601F =       24607. bytes (REL,CON)

      Value  Global                              Global Defined In Module
      -----  --------------------------------   ------------------------
     00002780  A$common$1003                      common
     00002782  A$common$1007                      common
     00002782  C$common.c$194$4_0$202             common
     00002784  A$common$1008                      common
     00002786  A$common$1012                      common
     00002786  C$common.c$195$4_0$202             common
     00002788  A$common$1020                      common
     00002788  C$common.c$196$4_0$202             common
     00002788  C$common.c$197$4_0$202             common
     0000278A  A$common$1021                      common
     0000278C  A$common$1025                      common
     0000278C  C$common.c$198$4_0$202             common
     0000278E  A$common$1026                      common
     00002790  A$common$1030                      common
     00002790  C$common.c$199$4_0$202             common
     00002792  A$common$1038                      common
     00002792  C$common.c$200$4_0$202             common
     00002792  C$common.c$201$4_0$202             common
     00002794  A$common$1039                      common
     00002796  A$common$1043                      common
     00002796  C$common.c$202$4_0$202             common
     00002798  A$common$1044                      common
     0000279A  A$common$1048                      common
     0000279A  C$common.c$203$4_0$202             common
     0000279C  A$common$1056                      common
     0000279C  C$common.c$204$4_0$202             common
     0000279C  C$common.c$205$4_0$202             common
     0000279E  A$common$1057                      common
     000027A0  A$common$1061                      common
     000027A0  C$common.c$206$4_0$202             common
     000027A2  A$common$1062                      common
     000027A4  A$common$1070                      common
     000027A4  C$common.c$208$3_0$201             common
     000027A4  C$common.c$209$3_0$201             common
     000027A5  A$common$1071                      common
     000027A6  A$common$1072                      common
     000027A9  A$common$1073                      common
     000027AA  A$common$1077                      common
     000027AA  C$common.c$188$2_0$200             common
     000027AB  A$common$1085                      common
     000027AB  C$common.c$211$2_0$200             common
     000027AB  XG$fadeFromWhite$0$0               common
     000027AD  A$common$1098                      common
     000027AD  C$common.c$213$2_0$204             common
     000027AD  C$common.c$215$1_0$204             common
     000027AD  G$InvertColor$0$0                  common
     000027AD  _InvertColor                       common
     000027AF  A$common$1099                      common
     000027B1  A$common$1103                      common
     000027B1  C$common.c$216$1_0$204             common
     000027B3  A$common$1104                      common
ASxxxx Linker V03.00/V05.40 + sdld,  page 31.
Hexadecimal  [32-Bits]

Area                                    Addr        Size        Decimal Bytes (Attributes)
--------------------------------        ----        ----        ------- ----- ------------
_CODE                               00000200    0000601F =       24607. bytes (REL,CON)

      Value  Global                              Global Defined In Module
      -----  --------------------------------   ------------------------
     000027B5  A$common$1112                      common
     000027B5  C$common.c$217$1_0$204             common
     000027B5  XG$InvertColor$0$0                 common
     000027B6  A$common$1125                      common
     000027B6  C$common.c$219$1_0$206             common
     000027B6  C$common.c$221$1_0$206             common
     000027B6  G$ResetColor$0$0                   common
     000027B6  _ResetColor                        common
     000027B8  A$common$1126                      common
     000027BA  A$common$1130                      common
     000027BA  C$common.c$222$1_0$206             common
     000027BC  A$common$1131                      common
     000027BE  A$common$1139                      common
     000027BE  C$common.c$223$1_0$206             common
     000027BE  XG$ResetColor$0$0                  common
     000027BF  A$common$1149                      common
     000027BF  C$common.c$225$1_0$208             common
     000027BF  G$RandomNumber$0$0                 common
     000027BF  _RandomNumber                      common
     000027C0  A$common$1155                      common
     000027C0  C$common.c$228$1_0$208             common
     000027C2  A$common$1156                      common
     000027C3  A$common$1157                      common
     000027C5  A$common$1158                      common
     000027C6  A$common$1159                      common
     000027C7  A$common$1160                      common
     000027C8  A$common$1161                      common
     000027C9  A$common$1162                      common
     000027CA  A$common$1163                      common
     000027CB  A$common$1164                      common
     000027CD  A$common$1165                      common
     000027CE  A$common$1166                      common
     000027D0  A$common$1167                      common
     000027D1  A$common$1168                      common
     000027D4  A$common$1169                      common
     000027D5  A$common$1170                      common
     000027D6  A$common$1171                      common
     000027D7  A$common$1179                      common
     000027D7  C$common.c$229$1_0$208             common
     000027D7  XG$RandomNumber$0$0                common
     000027D8  A$common$1189                      common
     000027D8  C$common.c$231$1_0$210             common
     000027D8  G$DrawWindow$0$0                   common
     000027D8  _DrawWindow                        common
     000027DA  A$common$1190                      common
     000027DC  A$common$1191                      common
     000027DD  A$common$1192                      common
     000027DE  A$common$1196                      common
     000027DE  C$common.c$236$1_0$210             common
     000027E0  A$common$1197                      common
     000027E1  A$common$1198                      common
ASxxxx Linker V03.00/V05.40 + sdld,  page 32.
Hexadecimal  [32-Bits]

Area                                    Addr        Size        Decimal Bytes (Attributes)
--------------------------------        ----        ----        ------- ----- ------------
_CODE                               00000200    0000601F =       24607. bytes (REL,CON)

      Value  Global                              Global Defined In Module
      -----  --------------------------------   ------------------------
     000027E2  A$common$1199                      common
     000027E4  A$common$1203                      common
     000027E4  C$common.c$238$2_0$211             common
     000027E6  A$common$1204                      common
     000027E7  A$common$1205                      common
     000027E8  A$common$1206                      common
     000027E9  A$common$1207                      common
     000027EA  A$common$1208                      common
     000027ED  A$common$1209                      common
     000027EE  A$common$1210                      common
     000027EF  A$common$1211                      common
     000027F0  A$common$1212                      common
     000027F2  A$common$1217                      common
     000027F2  C$common.c$241$2_0$212             common
     000027F4  A$common$1218                      common
     000027F5  A$common$1219                      common
     000027F6  A$common$1220                      common
     000027F7  A$common$1221                      common
     000027F8  A$common$1222                      common
     000027FB  A$common$1223                      common
     000027FC  A$common$1224                      common
     000027FD  A$common$1225                      common
     000027FE  A$common$1230                      common
     000027FF  A$common$1231                      common
     00002800  A$common$1232                      common
     00002801  A$common$1233                      common
     00002803  A$common$1234                      common
     00002806  A$common$1238                      common
     00002806  C$common.c$244$1_0$210             common
     00002808  A$common$1239                      common
     0000280A  A$common$1241                      common
     0000280C  A$common$1242                      common
     0000280D  A$common$1243                      common
     0000280F  A$common$1244                      common
     00002810  A$common$1245                      common
     00002811  A$common$1246                      common
     00002812  A$common$1247                      common
     00002813  A$common$1248                      common
     00002814  A$common$1249                      common
     00002815  A$common$1250                      common
     00002818  A$common$1251                      common
     00002819  A$common$1252                      common
     0000281A  A$common$1253                      common
     0000281B  A$common$1254                      common
     0000281C  A$common$1255                      common
     0000281D  A$common$1256                      common
     0000281F  A$common$1257                      common
     00002820  A$common$1258                      common
     00002821  A$common$1259                      common
     00002823  A$common$1260                      common
     00002824  A$common$1261                      common
ASxxxx Linker V03.00/V05.40 + sdld,  page 33.
Hexadecimal  [32-Bits]

Area                                    Addr        Size        Decimal Bytes (Attributes)
--------------------------------        ----        ----        ------- ----- ------------
_CODE                               00000200    0000601F =       24607. bytes (REL,CON)

      Value  Global                              Global Defined In Module
      -----  --------------------------------   ------------------------
     00002826  A$common$1262                      common
     00002827  A$common$1263                      common
     00002829  A$common$1264                      common
     0000282B  A$common$1265                      common
     0000282C  A$common$1266                      common
     0000282D  A$common$1267                      common
     0000282F  A$common$1268                      common
     00002830  A$common$1269                      common
     00002831  A$common$1270                      common
     00002832  A$common$1271                      common
     00002833  A$common$1272                      common
     00002834  A$common$1273                      common
     00002835  A$common$1274                      common
     00002836  A$common$1275                      common
     00002837  A$common$1276                      common
     00002839  A$common$1277                      common
     0000283B  A$common$1278                      common
     0000283D  A$common$1279                      common
     0000283F  A$common$1280                      common
     00002840  A$common$1281                      common
     00002842  A$common$1283                      common
     00002844  A$common$1284                      common
     00002846  A$common$1285                      common
     00002847  A$common$1287                      common
     00002849  A$common$1291                      common
     00002849  C$common.c$246$3_0$214             common
     0000284A  A$common$1292                      common
     0000284B  A$common$1293                      common
     0000284C  A$common$1294                      common
     0000284E  A$common$1295                      common
     00002851  A$common$1299                      common
     00002851  C$common.c$244$2_0$213             common
     00002853  A$common$1300                      common
     00002854  A$common$1301                      common
     00002856  A$common$1306                      common
     00002856  C$common.c$248$1_0$210             common
     00002858  A$common$1307                      common
     00002859  A$common$1308                      common
     0000285A  A$common$1309                      common
     0000285D  A$common$1313                      common
     0000285D  C$common.c$252$1_0$210             common
     0000285F  A$common$1314                      common
     00002860  A$common$1315                      common
     00002862  A$common$1316                      common
     00002863  A$common$1317                      common
     00002864  A$common$1318                      common
     00002865  A$common$1322                      common
     00002865  C$common.c$250$1_0$210             common
     00002867  A$common$1323                      common
     00002868  A$common$1324                      common
     00002869  A$common$1325                      common
ASxxxx Linker V03.00/V05.40 + sdld,  page 34.
Hexadecimal  [32-Bits]

Area                                    Addr        Size        Decimal Bytes (Attributes)
--------------------------------        ----        ----        ------- ----- ------------
_CODE                               00000200    0000601F =       24607. bytes (REL,CON)

      Value  Global                              Global Defined In Module
      -----  --------------------------------   ------------------------
     0000286B  A$common$1329                      common
     0000286B  C$common.c$252$2_0$215             common
     0000286C  A$common$1330                      common
     0000286D  A$common$1331                      common
     0000286F  A$common$1332                      common
     00002870  A$common$1333                      common
     00002871  A$common$1334                      common
     00002872  A$common$1335                      common
     00002875  A$common$1336                      common
     00002876  A$common$1337                      common
     00002878  A$common$1338                      common
     00002879  A$common$1339                      common
     0000287A  A$common$1340                      common
     0000287B  A$common$1341                      common
     0000287D  A$common$1346                      common
     0000287D  C$common.c$255$2_0$216             common
     0000287E  A$common$1347                      common
     0000287F  A$common$1348                      common
     00002881  A$common$1349                      common
     00002882  A$common$1350                      common
     00002883  A$common$1351                      common
     00002884  A$common$1352                      common
     00002887  A$common$1353                      common
     00002888  A$common$1354                      common
     0000288A  A$common$1355                      common
     0000288B  A$common$1356                      common
     0000288C  A$common$1357                      common
     0000288D  A$common$1362                      common
     0000288D  C$common.c$257$1_0$210             common
     0000288F  A$common$1363                      common
     00002891  A$common$1365                      common
     00002893  A$common$1366                      common
     00002894  A$common$1367                      common
     00002896  A$common$1368                      common
     00002897  A$common$1369                      common
     00002898  A$common$1370                      common
     00002899  A$common$1371                      common
     0000289A  A$common$1372                      common
     0000289B  A$common$1373                      common
     0000289C  A$common$1374                      common
     0000289F  A$common$1375                      common
     000028A0  A$common$1376                      common
     000028A1  A$common$1377                      common
     000028A2  A$common$1378                      common
     000028A3  A$common$1379                      common
     000028A4  A$common$1380                      common
     000028A6  A$common$1381                      common
     000028A7  A$common$1382                      common
     000028A8  A$common$1383                      common
     000028AA  A$common$1384                      common
     000028AB  A$common$1385                      common
ASxxxx Linker V03.00/V05.40 + sdld,  page 35.
Hexadecimal  [32-Bits]

Area                                    Addr        Size        Decimal Bytes (Attributes)
--------------------------------        ----        ----        ------- ----- ------------
_CODE                               00000200    0000601F =       24607. bytes (REL,CON)

      Value  Global                              Global Defined In Module
      -----  --------------------------------   ------------------------
     000028AD  A$common$1386                      common
     000028AE  A$common$1387                      common
     000028B0  A$common$1391                      common
     000028B0  C$common.c$243$1_0$210             common
     000028B2  A$common$1392                      common
     000028B3  A$common$1393                      common
     000028B4  A$common$1394                      common
     000028B5  A$common$1395                      common
     000028B6  A$common$1399                      common
     000028B8  A$common$1400                      common
     000028B9  A$common$1401                      common
     000028BA  A$common$1402                      common
     000028BC  A$common$1403                      common
     000028BD  A$common$1404                      common
     000028BE  A$common$1405                      common
     000028BF  A$common$1406                      common
     000028C0  A$common$1407                      common
     000028C1  A$common$1408                      common
     000028C2  A$common$1409                      common
     000028C3  A$common$1410                      common
     000028C4  A$common$1411                      common
     000028C6  A$common$1412                      common
     000028C8  A$common$1413                      common
     000028CA  A$common$1414                      common
     000028CC  A$common$1415                      common
     000028CD  A$common$1416                      common
     000028CF  A$common$1418                      common
     000028D1  A$common$1419                      common
     000028D3  A$common$1420                      common
     000028D4  A$common$1422                      common
     000028D7  A$common$1426                      common
     000028D7  C$common.c$259$3_0$218             common
     000028D9  A$common$1427                      common
     000028DA  A$common$1428                      common
     000028DB  A$common$1429                      common
     000028DC  A$common$1430                      common
     000028DE  A$common$1431                      common
     000028E1  A$common$1435                      common
     000028E1  C$common.c$260$1_0$210             common
     000028E3  A$common$1436                      common
     000028E5  A$common$1438                      common
     000028E7  A$common$1439                      common
     000028E8  A$common$1440                      common
     000028E9  A$common$1441                      common
     000028EA  A$common$1442                      common
     000028EC  A$common$1443                      common
     000028EE  A$common$1444                      common
     000028EF  A$common$1445                      common
     000028F0  A$common$1446                      common
     000028F2  A$common$1447                      common
     000028F3  A$common$1448                      common
ASxxxx Linker V03.00/V05.40 + sdld,  page 36.
Hexadecimal  [32-Bits]

Area                                    Addr        Size        Decimal Bytes (Attributes)
--------------------------------        ----        ----        ------- ----- ------------
_CODE                               00000200    0000601F =       24607. bytes (REL,CON)

      Value  Global                              Global Defined In Module
      -----  --------------------------------   ------------------------
     000028F4  A$common$1449                      common
     000028F5  A$common$1450                      common
     000028F6  A$common$1451                      common
     000028F7  A$common$1452                      common
     000028F8  A$common$1453                      common
     000028F9  A$common$1454                      common
     000028FA  A$common$1455                      common
     000028FC  A$common$1456                      common
     000028FE  A$common$1457                      common
     00002900  A$common$1458                      common
     00002902  A$common$1459                      common
     00002903  A$common$1460                      common
     00002905  A$common$1462                      common
     00002907  A$common$1463                      common
     00002909  A$common$1464                      common
     0000290A  A$common$1466                      common
     0000290C  A$common$1470                      common
     0000290C  C$common.c$262$5_0$220             common
     0000290D  A$common$1471                      common
     0000290E  A$common$1472                      common
     0000290F  A$common$1473                      common
     00002910  A$common$1474                      common
     00002913  A$common$1478                      common
     00002913  C$common.c$260$4_0$219             common
     00002915  A$common$1479                      common
     00002916  A$common$1480                      common
     00002918  A$common$1485                      common
     00002918  C$common.c$264$3_0$218             common
     0000291A  A$common$1486                      common
     0000291B  A$common$1487                      common
     0000291C  A$common$1488                      common
     0000291F  A$common$1492                      common
     0000291F  C$common.c$267$1_0$210             common
     00002921  A$common$1493                      common
     00002922  A$common$1494                      common
     00002924  A$common$1495                      common
     00002925  A$common$1496                      common
     00002926  A$common$1497                      common
     00002927  A$common$1498                      common
     00002928  A$common$1499                      common
     00002929  A$common$1503                      common
     00002929  C$common.c$265$3_0$218             common
     0000292B  A$common$1504                      common
     0000292C  A$common$1505                      common
     0000292D  A$common$1506                      common
     0000292F  A$common$1510                      common
     0000292F  C$common.c$267$4_0$221             common
     00002930  A$common$1511                      common
     00002931  A$common$1512                      common
     00002933  A$common$1513                      common
     00002934  A$common$1514                      common
ASxxxx Linker V03.00/V05.40 + sdld,  page 37.
Hexadecimal  [32-Bits]

Area                                    Addr        Size        Decimal Bytes (Attributes)
--------------------------------        ----        ----        ------- ----- ------------
_CODE                               00000200    0000601F =       24607. bytes (REL,CON)

      Value  Global                              Global Defined In Module
      -----  --------------------------------   ------------------------
     00002935  A$common$1515                      common
     00002936  A$common$1516                      common
     00002939  A$common$1517                      common
     0000293A  A$common$1518                      common
     0000293C  A$common$1519                      common
     0000293D  A$common$1520                      common
     0000293E  A$common$1521                      common
     0000293F  A$common$1522                      common
     00002941  A$common$1527                      common
     00002941  C$common.c$270$4_0$222             common
     00002942  A$common$1528                      common
     00002943  A$common$1529                      common
     00002945  A$common$1530                      common
     00002946  A$common$1531                      common
     00002947  A$common$1532                      common
     00002948  A$common$1533                      common
     0000294B  A$common$1534                      common
     0000294C  A$common$1535                      common
     0000294E  A$common$1536                      common
     0000294F  A$common$1537                      common
     00002950  A$common$1538                      common
     00002951  A$common$1543                      common
     00002951  C$common.c$257$2_0$217             common
     00002953  A$common$1544                      common
     00002954  A$common$1545                      common
     00002957  A$common$1550                      common
     00002957  C$common.c$273$1_0$210             common
     00002959  A$common$1551                      common
     0000295A  A$common$1552                      common
     0000295B  A$common$1553                      common
     0000295C  A$common$1554                      common
     0000295E  A$common$1555                      common
     00002961  A$common$1559                      common
     00002961  C$common.c$274$1_0$210             common
     00002963  A$common$1560                      common
     00002965  A$common$1562                      common
     00002967  A$common$1563                      common
     00002968  A$common$1564                      common
     0000296A  A$common$1565                      common
     0000296B  A$common$1566                      common
     0000296D  A$common$1567                      common
     0000296F  A$common$1568                      common
     00002970  A$common$1569                      common
     00002971  A$common$1570                      common
     00002973  A$common$1571                      common
     00002974  A$common$1572                      common
     00002975  A$common$1573                      common
     00002976  A$common$1574                      common
     00002977  A$common$1575                      common
     00002978  A$common$1576                      common
     00002979  A$common$1577                      common
ASxxxx Linker V03.00/V05.40 + sdld,  page 38.
Hexadecimal  [32-Bits]

Area                                    Addr        Size        Decimal Bytes (Attributes)
--------------------------------        ----        ----        ------- ----- ------------
_CODE                               00000200    0000601F =       24607. bytes (REL,CON)

      Value  Global                              Global Defined In Module
      -----  --------------------------------   ------------------------
     0000297A  A$common$1578                      common
     0000297B  A$common$1579                      common
     0000297D  A$common$1580                      common
     0000297F  A$common$1581                      common
     00002981  A$common$1582                      common
     00002983  A$common$1583                      common
     00002984  A$common$1584                      common
     00002986  A$common$1586                      common
     00002988  A$common$1587                      common
     0000298A  A$common$1588                      common
     0000298B  A$common$1590                      common
     0000298D  A$common$1594                      common
     0000298D  C$common.c$276$3_0$224             common
     0000298E  A$common$1595                      common
     0000298F  A$common$1596                      common
     00002990  A$common$1597                      common
     00002992  A$common$1598                      common
     00002995  A$common$1602                      common
     00002995  C$common.c$274$2_0$223             common
     00002997  A$common$1603                      common
     00002998  A$common$1604                      common
     0000299A  A$common$1609                      common
     0000299A  C$common.c$278$1_0$210             common
     0000299C  A$common$1610                      common
     0000299D  A$common$1611                      common
     0000299E  A$common$1612                      common
     000029A1  A$common$1616                      common
     000029A1  C$common.c$279$1_0$210             common
     000029A3  A$common$1617                      common
     000029A4  A$common$1618                      common
     000029A6  A$common$1619                      common
     000029A7  A$CoreGameLoop$114                 CoreGameLoop
     000029A7  C$CoreGameLoop.c$22$0_0$146        CoreGameLoop
     000029A7  G$set_camera$0$0                   CoreGameLoop
     000029A7  _set_camera                        CoreGameLoop
     000029A9  A$CoreGameLoop$118                 CoreGameLoop
     000029A9  C$CoreGameLoop.c$25$1_0$146        CoreGameLoop
     000029AC  A$CoreGameLoop$119                 CoreGameLoop
     000029AE  A$CoreGameLoop$120                 CoreGameLoop
     000029B1  A$CoreGameLoop$121                 CoreGameLoop
     000029B3  A$CoreGameLoop$125                 CoreGameLoop
     000029B3  C$CoreGameLoop.c$27$1_0$146        CoreGameLoop
     000029B6  A$CoreGameLoop$126                 CoreGameLoop
     000029B7  A$CoreGameLoop$127                 CoreGameLoop
     000029B8  A$CoreGameLoop$128                 CoreGameLoop
     000029B9  A$CoreGameLoop$129                 CoreGameLoop
     000029BB  A$CoreGameLoop$130                 CoreGameLoop
     000029BD  A$CoreGameLoop$131                 CoreGameLoop
     000029BF  A$CoreGameLoop$132                 CoreGameLoop
     000029C1  A$CoreGameLoop$133                 CoreGameLoop
     000029C3  A$CoreGameLoop$134                 CoreGameLoop
ASxxxx Linker V03.00/V05.40 + sdld,  page 39.
Hexadecimal  [32-Bits]

Area                                    Addr        Size        Decimal Bytes (Attributes)
--------------------------------        ----        ----        ------- ----- ------------
_CODE                               00000200    0000601F =       24607. bytes (REL,CON)

      Value  Global                              Global Defined In Module
      -----  --------------------------------   ------------------------
     000029C5  A$CoreGameLoop$135                 CoreGameLoop
     000029C8  A$CoreGameLoop$136                 CoreGameLoop
     000029C9  A$CoreGameLoop$140                 CoreGameLoop
     000029CA  A$CoreGameLoop$144                 CoreGameLoop
     000029CA  C$CoreGameLoop.c$28$1_0$146        CoreGameLoop
     000029CB  A$CoreGameLoop$145                 CoreGameLoop
     000029CE  A$CoreGameLoop$146                 CoreGameLoop
     000029CF  A$CoreGameLoop$147                 CoreGameLoop
     000029D2  A$CoreGameLoop$151                 CoreGameLoop
     000029D5  A$CoreGameLoop$152                 CoreGameLoop
     000029D6  A$CoreGameLoop$153                 CoreGameLoop
     000029D8  A$CoreGameLoop$154                 CoreGameLoop
     000029D9  A$CoreGameLoop$155                 CoreGameLoop
     000029DA  A$CoreGameLoop$156                 CoreGameLoop
     000029DC  A$CoreGameLoop$157                 CoreGameLoop
     000029DD  A$CoreGameLoop$158                 CoreGameLoop
     000029DF  A$CoreGameLoop$159                 CoreGameLoop
     000029E0  A$CoreGameLoop$160                 CoreGameLoop
     000029E1  A$CoreGameLoop$161                 CoreGameLoop
     000029E2  A$CoreGameLoop$162                 CoreGameLoop
     000029E3  A$CoreGameLoop$163                 CoreGameLoop
     000029E4  A$CoreGameLoop$164                 CoreGameLoop
     000029E6  A$CoreGameLoop$165                 CoreGameLoop
     000029E7  A$CoreGameLoop$166                 CoreGameLoop
     000029E8  A$CoreGameLoop$167                 CoreGameLoop
     000029E9  A$CoreGameLoop$168                 CoreGameLoop
     000029EA  A$CoreGameLoop$169                 CoreGameLoop
     000029EB  A$CoreGameLoop$170                 CoreGameLoop
     000029ED  A$CoreGameLoop$171                 CoreGameLoop
     000029EE  A$CoreGameLoop$172                 CoreGameLoop
     000029F0  A$CoreGameLoop$173                 CoreGameLoop
     000029F1  A$CoreGameLoop$174                 CoreGameLoop
     000029F3  A$CoreGameLoop$175                 CoreGameLoop
     000029F4  A$CoreGameLoop$176                 CoreGameLoop
     000029F5  A$CoreGameLoop$180                 CoreGameLoop
     000029F5  C$CoreGameLoop.c$30$2_0$147        CoreGameLoop
     000029F8  A$CoreGameLoop$181                 CoreGameLoop
     000029FB  A$CoreGameLoop$182                 CoreGameLoop
     000029FC  A$CoreGameLoop$183                 CoreGameLoop
     000029FD  A$CoreGameLoop$184                 CoreGameLoop
     000029FE  A$CoreGameLoop$185                 CoreGameLoop
     000029FF  A$CoreGameLoop$186                 CoreGameLoop
     00002A00  A$CoreGameLoop$187                 CoreGameLoop
     00002A01  A$CoreGameLoop$188                 CoreGameLoop
     00002A03  A$CoreGameLoop$190                 CoreGameLoop
     00002A04  A$CoreGameLoop$191                 CoreGameLoop
     00002A05  A$CoreGameLoop$192                 CoreGameLoop
     00002A07  A$CoreGameLoop$193                 CoreGameLoop
     00002A09  A$CoreGameLoop$194                 CoreGameLoop
     00002A0B  A$CoreGameLoop$196                 CoreGameLoop
     00002A0D  A$CoreGameLoop$197                 CoreGameLoop
ASxxxx Linker V03.00/V05.40 + sdld,  page 40.
Hexadecimal  [32-Bits]

Area                                    Addr        Size        Decimal Bytes (Attributes)
--------------------------------        ----        ----        ------- ----- ------------
_CODE                               00000200    0000601F =       24607. bytes (REL,CON)

      Value  Global                              Global Defined In Module
      -----  --------------------------------   ------------------------
     00002A0E  A$CoreGameLoop$198                 CoreGameLoop
     00002A0F  A$CoreGameLoop$201                 CoreGameLoop
     00002A12  A$CoreGameLoop$202                 CoreGameLoop
     00002A14  A$CoreGameLoop$204                 CoreGameLoop
     00002A16  A$CoreGameLoop$207                 CoreGameLoop
     00002A17  A$CoreGameLoop$208                 CoreGameLoop
     00002A18  A$CoreGameLoop$209                 CoreGameLoop
     00002A1B  A$CoreGameLoop$210                 CoreGameLoop
     00002A1C  A$CoreGameLoop$211                 CoreGameLoop
     00002A1E  A$CoreGameLoop$214                 CoreGameLoop
     00002A1F  A$CoreGameLoop$215                 CoreGameLoop
     00002A20  A$CoreGameLoop$216                 CoreGameLoop
     00002A21  A$CoreGameLoop$217                 CoreGameLoop
     00002A22  A$CoreGameLoop$218                 CoreGameLoop
     00002A24  A$CoreGameLoop$219                 CoreGameLoop
     00002A25  A$CoreGameLoop$220                 CoreGameLoop
     00002A26  A$CoreGameLoop$221                 CoreGameLoop
     00002A27  A$CoreGameLoop$222                 CoreGameLoop
     00002A2A  A$CoreGameLoop$223                 CoreGameLoop
     00002A2C  A$CoreGameLoop$225                 CoreGameLoop
     00002A2F  A$CoreGameLoop$226                 CoreGameLoop
     00002A31  A$CoreGameLoop$230                 CoreGameLoop
     00002A31  C$CoreGameLoop.c$32$2_0$147        CoreGameLoop
     00002A33  A$CoreGameLoop$235                 CoreGameLoop
     00002A33  C$CoreGameLoop.c$36$3_0$149        CoreGameLoop
     00002A36  A$CoreGameLoop$236                 CoreGameLoop
     00002A38  A$CoreGameLoop$237                 CoreGameLoop
     00002A3A  A$CoreGameLoop$239                 CoreGameLoop
     00002A3D  A$CoreGameLoop$240                 CoreGameLoop
     00002A3E  A$CoreGameLoop$241                 CoreGameLoop
     00002A3F  A$CoreGameLoop$242                 CoreGameLoop
     00002A41  A$CoreGameLoop$243                 CoreGameLoop
     00002A43  A$CoreGameLoop$244                 CoreGameLoop
     00002A45  A$CoreGameLoop$246                 CoreGameLoop
     00002A47  A$CoreGameLoop$247                 CoreGameLoop
     00002A48  A$CoreGameLoop$248                 CoreGameLoop
     00002A49  A$CoreGameLoop$249                 CoreGameLoop
     00002A4A  A$CoreGameLoop$251                 CoreGameLoop
     00002A4D  A$CoreGameLoop$252                 CoreGameLoop
     00002A4F  A$CoreGameLoop$254                 CoreGameLoop
     00002A52  A$CoreGameLoop$255                 CoreGameLoop
     00002A54  A$CoreGameLoop$257                 CoreGameLoop
     00002A56  A$CoreGameLoop$260                 CoreGameLoop
     00002A57  A$CoreGameLoop$261                 CoreGameLoop
     00002A58  A$CoreGameLoop$262                 CoreGameLoop
     00002A59  A$CoreGameLoop$263                 CoreGameLoop
     00002A5B  A$CoreGameLoop$266                 CoreGameLoop
     00002A5C  A$CoreGameLoop$267                 CoreGameLoop
     00002A5D  A$CoreGameLoop$268                 CoreGameLoop
     00002A5E  A$CoreGameLoop$271                 CoreGameLoop
     00002A5F  A$CoreGameLoop$272                 CoreGameLoop
ASxxxx Linker V03.00/V05.40 + sdld,  page 41.
Hexadecimal  [32-Bits]

Area                                    Addr        Size        Decimal Bytes (Attributes)
--------------------------------        ----        ----        ------- ----- ------------
_CODE                               00000200    0000601F =       24607. bytes (REL,CON)

      Value  Global                              Global Defined In Module
      -----  --------------------------------   ------------------------
     00002A60  A$CoreGameLoop$273                 CoreGameLoop
     00002A61  A$CoreGameLoop$274                 CoreGameLoop
     00002A62  A$CoreGameLoop$275                 CoreGameLoop
     00002A64  A$CoreGameLoop$276                 CoreGameLoop
     00002A65  A$CoreGameLoop$277                 CoreGameLoop
     00002A66  A$CoreGameLoop$278                 CoreGameLoop
     00002A67  A$CoreGameLoop$279                 CoreGameLoop
     00002A6A  A$CoreGameLoop$280                 CoreGameLoop
     00002A6C  A$CoreGameLoop$282                 CoreGameLoop
     00002A6F  A$CoreGameLoop$283                 CoreGameLoop
     00002A71  A$CoreGameLoop$291                 CoreGameLoop
     00002A71  C$CoreGameLoop.c$32$1_0$146        CoreGameLoop
     00002A71  C$CoreGameLoop.c$38$2_0$147        CoreGameLoop
     00002A74  A$CoreGameLoop$292                 CoreGameLoop
     00002A75  A$CoreGameLoop$296                 CoreGameLoop
     00002A75  C$CoreGameLoop.c$41$2_0$147        CoreGameLoop
     00002A78  A$CoreGameLoop$297                 CoreGameLoop
     00002A79  A$CoreGameLoop$302                 CoreGameLoop
     00002A79  C$CoreGameLoop.c$44$1_0$146        CoreGameLoop
     00002A7C  A$CoreGameLoop$303                 CoreGameLoop
     00002A7D  A$CoreGameLoop$304                 CoreGameLoop
     00002A7E  A$CoreGameLoop$305                 CoreGameLoop
     00002A7F  A$CoreGameLoop$306                 CoreGameLoop
     00002A81  A$CoreGameLoop$307                 CoreGameLoop
     00002A83  A$CoreGameLoop$308                 CoreGameLoop
     00002A85  A$CoreGameLoop$309                 CoreGameLoop
     00002A87  A$CoreGameLoop$310                 CoreGameLoop
     00002A89  A$CoreGameLoop$311                 CoreGameLoop
     00002A8B  A$CoreGameLoop$312                 CoreGameLoop
     00002A8E  A$CoreGameLoop$313                 CoreGameLoop
     00002A8F  A$CoreGameLoop$317                 CoreGameLoop
     00002A8F  C$CoreGameLoop.c$45$1_0$146        CoreGameLoop
     00002A90  A$CoreGameLoop$318                 CoreGameLoop
     00002A93  A$CoreGameLoop$319                 CoreGameLoop
     00002A94  A$CoreGameLoop$320                 CoreGameLoop
     00002A97  A$CoreGameLoop$324                 CoreGameLoop
     00002A97  C$CoreGameLoop.c$49$1_0$146        CoreGameLoop
     00002A9A  A$CoreGameLoop$325                 CoreGameLoop
     00002A9B  A$CoreGameLoop$326                 CoreGameLoop
     00002A9D  A$CoreGameLoop$327                 CoreGameLoop
     00002A9E  A$CoreGameLoop$328                 CoreGameLoop
     00002AA0  A$CoreGameLoop$329                 CoreGameLoop
     00002AA1  A$CoreGameLoop$330                 CoreGameLoop
     00002AA2  A$CoreGameLoop$333                 CoreGameLoop
     00002AA3  A$CoreGameLoop$334                 CoreGameLoop
     00002AA4  A$CoreGameLoop$335                 CoreGameLoop
     00002AA5  A$CoreGameLoop$338                 CoreGameLoop
     00002AA7  A$CoreGameLoop$339                 CoreGameLoop
     00002AA8  A$CoreGameLoop$340                 CoreGameLoop
     00002AA9  A$CoreGameLoop$341                 CoreGameLoop
     00002AAA  A$CoreGameLoop$342                 CoreGameLoop
ASxxxx Linker V03.00/V05.40 + sdld,  page 42.
Hexadecimal  [32-Bits]

Area                                    Addr        Size        Decimal Bytes (Attributes)
--------------------------------        ----        ----        ------- ----- ------------
_CODE                               00000200    0000601F =       24607. bytes (REL,CON)

      Value  Global                              Global Defined In Module
      -----  --------------------------------   ------------------------
     00002AAB  A$CoreGameLoop$343                 CoreGameLoop
     00002AAC  A$CoreGameLoop$344                 CoreGameLoop
     00002AAE  A$CoreGameLoop$345                 CoreGameLoop
     00002AAF  A$CoreGameLoop$346                 CoreGameLoop
     00002AB1  A$CoreGameLoop$347                 CoreGameLoop
     00002AB2  A$CoreGameLoop$348                 CoreGameLoop
     00002AB4  A$CoreGameLoop$349                 CoreGameLoop
     00002AB5  A$CoreGameLoop$350                 CoreGameLoop
     00002AB6  A$CoreGameLoop$354                 CoreGameLoop
     00002AB6  C$CoreGameLoop.c$47$2_0$151        CoreGameLoop
     00002AB7  A$CoreGameLoop$355                 CoreGameLoop
     00002ABA  A$CoreGameLoop$356                 CoreGameLoop
     00002ABD  A$CoreGameLoop$357                 CoreGameLoop
     00002ABE  A$CoreGameLoop$358                 CoreGameLoop
     00002ABF  A$CoreGameLoop$359                 CoreGameLoop
     00002AC0  A$CoreGameLoop$360                 CoreGameLoop
     00002AC1  A$CoreGameLoop$361                 CoreGameLoop
     00002AC2  A$CoreGameLoop$362                 CoreGameLoop
     00002AC3  A$CoreGameLoop$363                 CoreGameLoop
     00002AC4  A$CoreGameLoop$364                 CoreGameLoop
     00002AC6  A$CoreGameLoop$366                 CoreGameLoop
     00002AC7  A$CoreGameLoop$367                 CoreGameLoop
     00002AC8  A$CoreGameLoop$368                 CoreGameLoop
     00002ACA  A$CoreGameLoop$369                 CoreGameLoop
     00002ACD  A$CoreGameLoop$371                 CoreGameLoop
     00002ACE  A$CoreGameLoop$372                 CoreGameLoop
     00002AD1  A$CoreGameLoop$374                 CoreGameLoop
     00002AD4  A$CoreGameLoop$375                 CoreGameLoop
     00002AD6  A$CoreGameLoop$377                 CoreGameLoop
     00002AD8  A$CoreGameLoop$380                 CoreGameLoop
     00002AD9  A$CoreGameLoop$381                 CoreGameLoop
     00002ADA  A$CoreGameLoop$382                 CoreGameLoop
     00002ADD  A$CoreGameLoop$383                 CoreGameLoop
     00002ADE  A$CoreGameLoop$384                 CoreGameLoop
     00002ADF  A$CoreGameLoop$385                 CoreGameLoop
     00002AE0  A$CoreGameLoop$386                 CoreGameLoop
     00002AE2  A$CoreGameLoop$389                 CoreGameLoop
     00002AE3  A$CoreGameLoop$390                 CoreGameLoop
     00002AE4  A$CoreGameLoop$391                 CoreGameLoop
     00002AE5  A$CoreGameLoop$394                 CoreGameLoop
     00002AE6  A$CoreGameLoop$395                 CoreGameLoop
     00002AE7  A$CoreGameLoop$396                 CoreGameLoop
     00002AE8  A$CoreGameLoop$397                 CoreGameLoop
     00002AE9  A$CoreGameLoop$398                 CoreGameLoop
     00002AEC  A$CoreGameLoop$399                 CoreGameLoop
     00002AEE  A$CoreGameLoop$401                 CoreGameLoop
     00002AF1  A$CoreGameLoop$402                 CoreGameLoop
     00002AF3  A$CoreGameLoop$406                 CoreGameLoop
     00002AF3  C$CoreGameLoop.c$49$2_0$151        CoreGameLoop
     00002AF5  A$CoreGameLoop$411                 CoreGameLoop
     00002AF5  C$CoreGameLoop.c$53$3_0$153        CoreGameLoop
ASxxxx Linker V03.00/V05.40 + sdld,  page 43.
Hexadecimal  [32-Bits]

Area                                    Addr        Size        Decimal Bytes (Attributes)
--------------------------------        ----        ----        ------- ----- ------------
_CODE                               00000200    0000601F =       24607. bytes (REL,CON)

      Value  Global                              Global Defined In Module
      -----  --------------------------------   ------------------------
     00002AF8  A$CoreGameLoop$412                 CoreGameLoop
     00002AFA  A$CoreGameLoop$413                 CoreGameLoop
     00002AFC  A$CoreGameLoop$415                 CoreGameLoop
     00002AFD  A$CoreGameLoop$416                 CoreGameLoop
     00002AFE  A$CoreGameLoop$417                 CoreGameLoop
     00002B00  A$CoreGameLoop$418                 CoreGameLoop
     00002B03  A$CoreGameLoop$420                 CoreGameLoop
     00002B04  A$CoreGameLoop$421                 CoreGameLoop
     00002B07  A$CoreGameLoop$422                 CoreGameLoop
     00002B09  A$CoreGameLoop$424                 CoreGameLoop
     00002B0C  A$CoreGameLoop$425                 CoreGameLoop
     00002B0E  A$CoreGameLoop$427                 CoreGameLoop
     00002B10  A$CoreGameLoop$430                 CoreGameLoop
     00002B11  A$CoreGameLoop$431                 CoreGameLoop
     00002B12  A$CoreGameLoop$432                 CoreGameLoop
     00002B15  A$CoreGameLoop$433                 CoreGameLoop
     00002B16  A$CoreGameLoop$434                 CoreGameLoop
     00002B17  A$CoreGameLoop$435                 CoreGameLoop
     00002B18  A$CoreGameLoop$436                 CoreGameLoop
     00002B1A  A$CoreGameLoop$439                 CoreGameLoop
     00002B1B  A$CoreGameLoop$440                 CoreGameLoop
     00002B1C  A$CoreGameLoop$441                 CoreGameLoop
     00002B1D  A$CoreGameLoop$444                 CoreGameLoop
     00002B1E  A$CoreGameLoop$445                 CoreGameLoop
     00002B1F  A$CoreGameLoop$446                 CoreGameLoop
     00002B20  A$CoreGameLoop$447                 CoreGameLoop
     00002B21  A$CoreGameLoop$448                 CoreGameLoop
     00002B24  A$CoreGameLoop$449                 CoreGameLoop
     00002B26  A$CoreGameLoop$451                 CoreGameLoop
     00002B29  A$CoreGameLoop$452                 CoreGameLoop
     00002B2B  A$CoreGameLoop$460                 CoreGameLoop
     00002B2B  C$CoreGameLoop.c$55$2_0$151        CoreGameLoop
     00002B2B  C$CoreGameLoop.c$58$2_0$151        CoreGameLoop
     00002B2E  A$CoreGameLoop$461                 CoreGameLoop
     00002B31  A$CoreGameLoop$466                 CoreGameLoop
     00002B31  C$CoreGameLoop.c$61$1_0$146        CoreGameLoop
     00002B34  A$CoreGameLoop$467                 CoreGameLoop
     00002B37  A$CoreGameLoop$468                 CoreGameLoop
     00002B3A  A$CoreGameLoop$469                 CoreGameLoop
     00002B3D  A$CoreGameLoop$470                 CoreGameLoop
     00002B40  A$CoreGameLoop$471                 CoreGameLoop
     00002B43  A$CoreGameLoop$472                 CoreGameLoop
     00002B46  A$CoreGameLoop$473                 CoreGameLoop
     00002B49  A$CoreGameLoop$477                 CoreGameLoop
     00002B49  C$CoreGameLoop.c$63$1_0$146        CoreGameLoop
     00002B4C  A$CoreGameLoop$478                 CoreGameLoop
     00002B4D  A$CoreGameLoop$479                 CoreGameLoop
     00002B4F  A$CoreGameLoop$480                 CoreGameLoop
     00002B52  A$CoreGameLoop$481                 CoreGameLoop
     00002B53  A$CoreGameLoop$482                 CoreGameLoop
     00002B54  A$CoreGameLoop$483                 CoreGameLoop
ASxxxx Linker V03.00/V05.40 + sdld,  page 44.
Hexadecimal  [32-Bits]

Area                                    Addr        Size        Decimal Bytes (Attributes)
--------------------------------        ----        ----        ------- ----- ------------
_CODE                               00000200    0000601F =       24607. bytes (REL,CON)

      Value  Global                              Global Defined In Module
      -----  --------------------------------   ------------------------
     00002B56  A$CoreGameLoop$484                 CoreGameLoop
     00002B58  A$CoreGameLoop$485                 CoreGameLoop
     00002B5B  A$CoreGameLoop$489                 CoreGameLoop
     00002B5B  C$CoreGameLoop.c$64$1_0$146        CoreGameLoop
     00002B5C  A$CoreGameLoop$490                 CoreGameLoop
     00002B5D  A$CoreGameLoop$491                 CoreGameLoop
     00002B5E  A$CoreGameLoop$492                 CoreGameLoop
     00002B61  A$CoreGameLoop$493                 CoreGameLoop
     00002B62  A$CoreGameLoop$494                 CoreGameLoop
     00002B64  A$CoreGameLoop$495                 CoreGameLoop
     00002B65  A$CoreGameLoop$496                 CoreGameLoop
     00002B68  A$CoreGameLoop$500                 CoreGameLoop
     00002B68  C$CoreGameLoop.c$65$1_0$146        CoreGameLoop
     00002B6B  A$CoreGameLoop$501                 CoreGameLoop
     00002B6C  A$CoreGameLoop$502                 CoreGameLoop
     00002B6E  A$CoreGameLoop$503                 CoreGameLoop
     00002B71  A$CoreGameLoop$504                 CoreGameLoop
     00002B72  A$CoreGameLoop$505                 CoreGameLoop
     00002B73  A$CoreGameLoop$506                 CoreGameLoop
     00002B75  A$CoreGameLoop$507                 CoreGameLoop
     00002B77  A$CoreGameLoop$508                 CoreGameLoop
     00002B7A  A$CoreGameLoop$512                 CoreGameLoop
     00002B7A  C$CoreGameLoop.c$66$1_0$146        CoreGameLoop
     00002B7B  A$CoreGameLoop$513                 CoreGameLoop
     00002B7C  A$CoreGameLoop$514                 CoreGameLoop
     00002B7D  A$CoreGameLoop$515                 CoreGameLoop
     00002B80  A$CoreGameLoop$516                 CoreGameLoop
     00002B81  A$CoreGameLoop$517                 CoreGameLoop
     00002B83  A$CoreGameLoop$518                 CoreGameLoop
     00002B84  A$CoreGameLoop$519                 CoreGameLoop
     00002B87  A$CoreGameLoop$523                 CoreGameLoop
     00002B89  A$CoreGameLoop$528                 CoreGameLoop
     00002B89  C$CoreGameLoop.c$67$1_0$146        CoreGameLoop
     00002B89  XG$set_camera$0$0                  CoreGameLoop
     00002B8A  FCoreGameLoop$__str_0$0_0$0        CoreGameLoop
     00002B8D  FCoreGameLoop$__str_1$0_0$0        CoreGameLoop
     00002B90  A$CoreGameLoop$549                 CoreGameLoop
     00002B90  C$CoreGameLoop.c$71$1_0$168        CoreGameLoop
     00002B90  C$CoreGameLoop.c$74$1_0$168        CoreGameLoop
     00002B90  G$CoreGameLoopSetup$0$0            CoreGameLoop
     00002B90  _CoreGameLoopSetup                 CoreGameLoop
     00002B93  A$CoreGameLoop$550                 CoreGameLoop
     00002B95  A$CoreGameLoop$551                 CoreGameLoop
     00002B98  A$CoreGameLoop$552                 CoreGameLoop
     00002B9A  A$CoreGameLoop$556                 CoreGameLoop
     00002B9A  C$CoreGameLoop.c$75$1_0$168        CoreGameLoop
     00002B9D  A$CoreGameLoop$557                 CoreGameLoop
     00002B9F  A$CoreGameLoop$561                 CoreGameLoop
     00002B9F  C$CoreGameLoop.c$76$1_0$168        CoreGameLoop
     00002BA2  A$CoreGameLoop$562                 CoreGameLoop
     00002BA4  A$CoreGameLoop$563                 CoreGameLoop
ASxxxx Linker V03.00/V05.40 + sdld,  page 45.
Hexadecimal  [32-Bits]

Area                                    Addr        Size        Decimal Bytes (Attributes)
--------------------------------        ----        ----        ------- ----- ------------
_CODE                               00000200    0000601F =       24607. bytes (REL,CON)

      Value  Global                              Global Defined In Module
      -----  --------------------------------   ------------------------
     00002BA5  A$CoreGameLoop$564                 CoreGameLoop
     00002BA6  A$CoreGameLoop$565                 CoreGameLoop
     00002BA7  A$CoreGameLoop$569                 CoreGameLoop
     00002BA7  C$CoreGameLoop.c$77$1_0$168        CoreGameLoop
     00002BAA  A$CoreGameLoop$570                 CoreGameLoop
     00002BAC  A$CoreGameLoop$571                 CoreGameLoop
     00002BAD  A$CoreGameLoop$572                 CoreGameLoop
     00002BAE  A$CoreGameLoop$573                 CoreGameLoop
     00002BAF  A$CoreGameLoop$577                 CoreGameLoop
     00002BAF  C$CoreGameLoop.c$78$1_0$168        CoreGameLoop
     00002BB2  A$CoreGameLoop$578                 CoreGameLoop
     00002BB4  A$CoreGameLoop$579                 CoreGameLoop
     00002BB5  A$CoreGameLoop$580                 CoreGameLoop
     00002BB6  A$CoreGameLoop$581                 CoreGameLoop
     00002BB7  A$CoreGameLoop$582                 CoreGameLoop
     00002BBA  A$CoreGameLoop$583                 CoreGameLoop
     00002BBC  A$CoreGameLoop$584                 CoreGameLoop
     00002BBD  A$CoreGameLoop$585                 CoreGameLoop
     00002BBE  A$CoreGameLoop$586                 CoreGameLoop
     00002BBF  A$CoreGameLoop$590                 CoreGameLoop
     00002BBF  C$CoreGameLoop.c$79$1_0$168        CoreGameLoop
     00002BC2  A$CoreGameLoop$591                 CoreGameLoop
     00002BC4  A$CoreGameLoop$595                 CoreGameLoop
     00002BC4  C$CoreGameLoop.c$81$1_0$168        CoreGameLoop
     00002BC7  A$CoreGameLoop$596                 CoreGameLoop
     00002BC8  A$CoreGameLoop$597                 CoreGameLoop
     00002BCB  A$CoreGameLoop$598                 CoreGameLoop
     00002BCC  A$CoreGameLoop$599                 CoreGameLoop
     00002BCF  A$CoreGameLoop$600                 CoreGameLoop
     00002BD1  A$CoreGameLoop$604                 CoreGameLoop
     00002BD1  C$CoreGameLoop.c$82$1_0$168        CoreGameLoop
     00002BD4  A$CoreGameLoop$605                 CoreGameLoop
     00002BD5  A$CoreGameLoop$606                 CoreGameLoop
     00002BD8  A$CoreGameLoop$607                 CoreGameLoop
     00002BD9  A$CoreGameLoop$608                 CoreGameLoop
     00002BDC  A$CoreGameLoop$609                 CoreGameLoop
     00002BDE  A$CoreGameLoop$612                 CoreGameLoop
     00002BE1  A$CoreGameLoop$613                 CoreGameLoop
     00002BE3  A$CoreGameLoop$615                 CoreGameLoop
     00002BE5  A$CoreGameLoop$616                 CoreGameLoop
     00002BE6  A$CoreGameLoop$617                 CoreGameLoop
     00002BE7  A$CoreGameLoop$618                 CoreGameLoop
     00002BEA  A$CoreGameLoop$619                 CoreGameLoop
     00002BEB  A$CoreGameLoop$620                 CoreGameLoop
     00002BEE  A$CoreGameLoop$621                 CoreGameLoop
     00002BEF  A$CoreGameLoop$622                 CoreGameLoop
     00002BF0  A$CoreGameLoop$623                 CoreGameLoop
     00002BF1  A$CoreGameLoop$624                 CoreGameLoop
     00002BF2  A$CoreGameLoop$625                 CoreGameLoop
     00002BF5  A$CoreGameLoop$626                 CoreGameLoop
     00002BF7  A$CoreGameLoop$628                 CoreGameLoop
ASxxxx Linker V03.00/V05.40 + sdld,  page 46.
Hexadecimal  [32-Bits]

Area                                    Addr        Size        Decimal Bytes (Attributes)
--------------------------------        ----        ----        ------- ----- ------------
_CODE                               00000200    0000601F =       24607. bytes (REL,CON)

      Value  Global                              Global Defined In Module
      -----  --------------------------------   ------------------------
     00002BFA  A$CoreGameLoop$629                 CoreGameLoop
     00002BFC  A$CoreGameLoop$633                 CoreGameLoop
     00002BFC  C$CoreGameLoop.c$84$1_0$168        CoreGameLoop
     00002BFF  A$CoreGameLoop$634                 CoreGameLoop
     00002C00  A$CoreGameLoop$635                 CoreGameLoop
     00002C03  A$CoreGameLoop$636                 CoreGameLoop
     00002C04  A$CoreGameLoop$637                 CoreGameLoop
     00002C07  A$CoreGameLoop$638                 CoreGameLoop
     00002C09  A$CoreGameLoop$642                 CoreGameLoop
     00002C09  C$CoreGameLoop.c$85$1_0$168        CoreGameLoop
     00002C0B  A$CoreGameLoop$643                 CoreGameLoop
     00002C0D  A$CoreGameLoop$644                 CoreGameLoop
     00002C0F  A$CoreGameLoop$648                 CoreGameLoop
     00002C0F  C$CoreGameLoop.c$86$1_0$168        CoreGameLoop
     00002C11  A$CoreGameLoop$649                 CoreGameLoop
     00002C13  A$CoreGameLoop$650                 CoreGameLoop
     00002C15  A$CoreGameLoop$654                 CoreGameLoop
     00002C15  C$CoreGameLoop.c$87$1_0$168        CoreGameLoop
     00002C17  A$CoreGameLoop$655                 CoreGameLoop
     00002C19  A$CoreGameLoop$656                 CoreGameLoop
     00002C1B  A$CoreGameLoop$660                 CoreGameLoop
     00002C1B  C$CoreGameLoop.c$88$1_0$168        CoreGameLoop
     00002C1E  A$CoreGameLoop$664                 CoreGameLoop
     00002C1E  C$CoreGameLoop.c$89$1_0$168        CoreGameLoop
     00002C20  A$CoreGameLoop$665                 CoreGameLoop
     00002C23  A$CoreGameLoop$669                 CoreGameLoop
     00002C23  C$CoreGameLoop.c$90$1_0$168        CoreGameLoop
     00002C26  A$CoreGameLoop$670                 CoreGameLoop
     00002C27  A$CoreGameLoop$671                 CoreGameLoop
     00002C2A  A$CoreGameLoop$672                 CoreGameLoop
     00002C2B  A$CoreGameLoop$673                 CoreGameLoop
     00002C2D  A$CoreGameLoop$674                 CoreGameLoop
     00002C2E  A$CoreGameLoop$675                 CoreGameLoop
     00002C31  A$CoreGameLoop$679                 CoreGameLoop
     00002C31  C$CoreGameLoop.c$91$1_0$168        CoreGameLoop
     00002C32  A$CoreGameLoop$680                 CoreGameLoop
     00002C33  A$CoreGameLoop$681                 CoreGameLoop
     00002C34  A$CoreGameLoop$682                 CoreGameLoop
     00002C37  A$CoreGameLoop$683                 CoreGameLoop
     00002C38  A$CoreGameLoop$684                 CoreGameLoop
     00002C3A  A$CoreGameLoop$685                 CoreGameLoop
     00002C3C  A$CoreGameLoop$686                 CoreGameLoop
     00002C3F  A$CoreGameLoop$694                 CoreGameLoop
     00002C3F  C$CoreGameLoop.c$92$1_0$168        CoreGameLoop
     00002C3F  XG$CoreGameLoopSetup$0$0           CoreGameLoop
     00002C40  FCoreGameLoop$__str_2$0_0$0        CoreGameLoop
     00002C4C  A$CoreGameLoop$711                 CoreGameLoop
     00002C4C  C$CoreGameLoop.c$96$1_0$173        CoreGameLoop
     00002C4C  C$CoreGameLoop.c$98$1_0$173        CoreGameLoop
     00002C4C  G$CoreGameLoopUpdate$0$0           CoreGameLoop
     00002C4C  _CoreGameLoopUpdate                CoreGameLoop
ASxxxx Linker V03.00/V05.40 + sdld,  page 47.
Hexadecimal  [32-Bits]

Area                                    Addr        Size        Decimal Bytes (Attributes)
--------------------------------        ----        ----        ------- ----- ------------
_CODE                               00000200    0000601F =       24607. bytes (REL,CON)

      Value  Global                              Global Defined In Module
      -----  --------------------------------   ------------------------
     00002C4F  A$CoreGameLoop$712                 CoreGameLoop
     00002C52  A$CoreGameLoop$716                 CoreGameLoop
     00002C52  C$CoreGameLoop.c$99$1_0$173        CoreGameLoop
     00002C55  A$CoreGameLoop$717                 CoreGameLoop
     00002C58  A$CoreGameLoop$721                 CoreGameLoop
     00002C58  C$CoreGameLoop.c$100$1_0$173       CoreGameLoop
     00002C5B  A$CoreGameLoop$722                 CoreGameLoop
     00002C5E  A$CoreGameLoop$726                 CoreGameLoop
     00002C5E  C$CoreGameLoop.c$105$1_0$173       CoreGameLoop
     00002C61  A$CoreGameLoop$727                 CoreGameLoop
     00002C62  A$CoreGameLoop$728                 CoreGameLoop
     00002C64  A$CoreGameLoop$729                 CoreGameLoop
     00002C66  A$CoreGameLoop$733                 CoreGameLoop
     00002C66  C$CoreGameLoop.c$106$2_0$175       CoreGameLoop
     00002C69  A$CoreGameLoop$734                 CoreGameLoop
     00002C6A  A$CoreGameLoop$735                 CoreGameLoop
     00002C6B  A$CoreGameLoop$736                 CoreGameLoop
     00002C6D  A$CoreGameLoop$740                 CoreGameLoop
     00002C6D  C$CoreGameLoop.c$107$3_0$176       CoreGameLoop
     00002C6E  A$CoreGameLoop$741                 CoreGameLoop
     00002C6F  A$CoreGameLoop$742                 CoreGameLoop
     00002C70  A$CoreGameLoop$743                 CoreGameLoop
     00002C71  A$CoreGameLoop$744                 CoreGameLoop
     00002C72  A$CoreGameLoop$745                 CoreGameLoop
     00002C73  A$CoreGameLoop$746                 CoreGameLoop
     00002C74  A$CoreGameLoop$747                 CoreGameLoop
     00002C75  A$CoreGameLoop$751                 CoreGameLoop
     00002C75  C$CoreGameLoop.c$108$3_0$176       CoreGameLoop
     00002C78  A$CoreGameLoop$752                 CoreGameLoop
     00002C7A  A$CoreGameLoop$753                 CoreGameLoop
     00002C7C  A$CoreGameLoop$758                 CoreGameLoop
     00002C7C  C$CoreGameLoop.c$110$1_0$173       CoreGameLoop
     00002C7E  A$CoreGameLoop$759                 CoreGameLoop
     00002C80  A$CoreGameLoop$763                 CoreGameLoop
     00002C80  C$CoreGameLoop.c$111$2_0$177       CoreGameLoop
     00002C83  A$CoreGameLoop$764                 CoreGameLoop
     00002C84  A$CoreGameLoop$765                 CoreGameLoop
     00002C85  A$CoreGameLoop$766                 CoreGameLoop
     00002C87  A$CoreGameLoop$767                 CoreGameLoop
     00002C88  A$CoreGameLoop$768                 CoreGameLoop
     00002C8A  A$CoreGameLoop$769                 CoreGameLoop
     00002C8C  A$CoreGameLoop$773                 CoreGameLoop
     00002C8C  C$CoreGameLoop.c$113$3_0$178       CoreGameLoop
     00002C8D  A$CoreGameLoop$774                 CoreGameLoop
     00002C8E  A$CoreGameLoop$775                 CoreGameLoop
     00002C90  A$CoreGameLoop$776                 CoreGameLoop
     00002C91  A$CoreGameLoop$777                 CoreGameLoop
     00002C92  A$CoreGameLoop$782                 CoreGameLoop
     00002C92  C$CoreGameLoop.c$114$3_0$178       CoreGameLoop
     00002C95  A$CoreGameLoop$783                 CoreGameLoop
     00002C97  A$CoreGameLoop$788                 CoreGameLoop
ASxxxx Linker V03.00/V05.40 + sdld,  page 48.
Hexadecimal  [32-Bits]

Area                                    Addr        Size        Decimal Bytes (Attributes)
--------------------------------        ----        ----        ------- ----- ------------
_CODE                               00000200    0000601F =       24607. bytes (REL,CON)

      Value  Global                              Global Defined In Module
      -----  --------------------------------   ------------------------
     00002C97  C$CoreGameLoop.c$118$1_0$173       CoreGameLoop
     00002C99  A$CoreGameLoop$789                 CoreGameLoop
     00002C9B  A$CoreGameLoop$793                 CoreGameLoop
     00002C9B  C$CoreGameLoop.c$119$2_0$179       CoreGameLoop
     00002C9E  A$CoreGameLoop$794                 CoreGameLoop
     00002C9F  A$CoreGameLoop$795                 CoreGameLoop
     00002CA0  A$CoreGameLoop$796                 CoreGameLoop
     00002CA3  A$CoreGameLoop$800                 CoreGameLoop
     00002CA3  C$CoreGameLoop.c$121$3_0$180       CoreGameLoop
     00002CA4  A$CoreGameLoop$801                 CoreGameLoop
     00002CA5  A$CoreGameLoop$802                 CoreGameLoop
     00002CA6  A$CoreGameLoop$803                 CoreGameLoop
     00002CA7  A$CoreGameLoop$804                 CoreGameLoop
     00002CA8  A$CoreGameLoop$805                 CoreGameLoop
     00002CA9  A$CoreGameLoop$806                 CoreGameLoop
     00002CAA  A$CoreGameLoop$807                 CoreGameLoop
     00002CAB  A$CoreGameLoop$811                 CoreGameLoop
     00002CAB  C$CoreGameLoop.c$122$3_0$180       CoreGameLoop
     00002CAE  A$CoreGameLoop$812                 CoreGameLoop
     00002CB0  A$CoreGameLoop$813                 CoreGameLoop
     00002CB3  A$CoreGameLoop$818                 CoreGameLoop
     00002CB3  C$CoreGameLoop.c$124$1_0$173       CoreGameLoop
     00002CB5  A$CoreGameLoop$819                 CoreGameLoop
     00002CB7  A$CoreGameLoop$823                 CoreGameLoop
     00002CB7  C$CoreGameLoop.c$125$2_0$181       CoreGameLoop
     00002CBA  A$CoreGameLoop$824                 CoreGameLoop
     00002CBB  A$CoreGameLoop$825                 CoreGameLoop
     00002CBD  A$CoreGameLoop$826                 CoreGameLoop
     00002CBE  A$CoreGameLoop$827                 CoreGameLoop
     00002CC0  A$CoreGameLoop$828                 CoreGameLoop
     00002CC3  A$CoreGameLoop$832                 CoreGameLoop
     00002CC3  C$CoreGameLoop.c$127$3_0$182       CoreGameLoop
     00002CC4  A$CoreGameLoop$833                 CoreGameLoop
     00002CC5  A$CoreGameLoop$834                 CoreGameLoop
     00002CC7  A$CoreGameLoop$835                 CoreGameLoop
     00002CC8  A$CoreGameLoop$836                 CoreGameLoop
     00002CC9  A$CoreGameLoop$841                 CoreGameLoop
     00002CC9  C$CoreGameLoop.c$128$3_0$182       CoreGameLoop
     00002CCC  A$CoreGameLoop$842                 CoreGameLoop
     00002CCE  A$CoreGameLoop$843                 CoreGameLoop
     00002CD1  A$CoreGameLoop$848                 CoreGameLoop
     00002CD1  C$CoreGameLoop.c$130$1_0$173       CoreGameLoop
     00002CD3  A$CoreGameLoop$849                 CoreGameLoop
     00002CD5  A$CoreGameLoop$853                 CoreGameLoop
     00002CD5  C$CoreGameLoop.c$131$2_0$183       CoreGameLoop
     00002CD7  A$CoreGameLoop$854                 CoreGameLoop
     00002CDA  A$CoreGameLoop$858                 CoreGameLoop
     00002CDA  C$CoreGameLoop.c$132$2_0$183       CoreGameLoop
     00002CDC  A$CoreGameLoop$859                 CoreGameLoop
     00002CDD  A$CoreGameLoop$864                 CoreGameLoop
     00002CDD  C$CoreGameLoop.c$134$1_0$173       CoreGameLoop
ASxxxx Linker V03.00/V05.40 + sdld,  page 49.
Hexadecimal  [32-Bits]

Area                                    Addr        Size        Decimal Bytes (Attributes)
--------------------------------        ----        ----        ------- ----- ------------
_CODE                               00000200    0000601F =       24607. bytes (REL,CON)

      Value  Global                              Global Defined In Module
      -----  --------------------------------   ------------------------
     00002CDF  A$CoreGameLoop$865                 CoreGameLoop
     00002CE1  A$CoreGameLoop$869                 CoreGameLoop
     00002CE1  C$CoreGameLoop.c$136$2_0$184       CoreGameLoop
     00002CE4  A$CoreGameLoop$870                 CoreGameLoop
     00002CE5  A$CoreGameLoop$871                 CoreGameLoop
     00002CE8  A$CoreGameLoop$872                 CoreGameLoop
     00002CE9  A$CoreGameLoop$873                 CoreGameLoop
     00002CEC  A$CoreGameLoop$874                 CoreGameLoop
     00002CEE  A$CoreGameLoop$875                 CoreGameLoop
     00002CF1  A$CoreGameLoop$880                 CoreGameLoop
     00002CF1  C$CoreGameLoop.c$138$1_0$173       CoreGameLoop
     00002CF3  A$CoreGameLoop$881                 CoreGameLoop
     00002CF6  A$CoreGameLoop$885                 CoreGameLoop
     00002CF6  C$CoreGameLoop.c$141$2_0$185       CoreGameLoop
     00002CF9  A$CoreGameLoop$886                 CoreGameLoop
     00002CFA  A$CoreGameLoop$887                 CoreGameLoop
     00002CFC  A$CoreGameLoop$888                 CoreGameLoop
     00002CFD  A$CoreGameLoop$889                 CoreGameLoop
     00002CFE  A$CoreGameLoop$890                 CoreGameLoop
     00002D01  A$CoreGameLoop$891                 CoreGameLoop
     00002D02  A$CoreGameLoop$892                 CoreGameLoop
     00002D05  A$CoreGameLoop$893                 CoreGameLoop
     00002D08  A$CoreGameLoop$897                 CoreGameLoop
     00002D08  C$CoreGameLoop.c$142$2_0$185       CoreGameLoop
     00002D0B  A$CoreGameLoop$898                 CoreGameLoop
     00002D0C  A$CoreGameLoop$899                 CoreGameLoop
     00002D0D  A$CoreGameLoop$900                 CoreGameLoop
     00002D0F  A$CoreGameLoop$901                 CoreGameLoop
     00002D10  A$CoreGameLoop$902                 CoreGameLoop
     00002D11  A$CoreGameLoop$903                 CoreGameLoop
     00002D14  A$CoreGameLoop$904                 CoreGameLoop
     00002D15  A$CoreGameLoop$905                 CoreGameLoop
     00002D18  A$CoreGameLoop$906                 CoreGameLoop
     00002D19  A$CoreGameLoop$907                 CoreGameLoop
     00002D1A  A$CoreGameLoop$908                 CoreGameLoop
     00002D1D  A$CoreGameLoop$912                 CoreGameLoop
     00002D1D  C$CoreGameLoop.c$143$2_0$185       CoreGameLoop
     00002D20  A$CoreGameLoop$913                 CoreGameLoop
     00002D21  A$CoreGameLoop$914                 CoreGameLoop
     00002D22  A$CoreGameLoop$915                 CoreGameLoop
     00002D25  A$CoreGameLoop$916                 CoreGameLoop
     00002D26  A$CoreGameLoop$917                 CoreGameLoop
     00002D27  A$CoreGameLoop$918                 CoreGameLoop
     00002D28  A$CoreGameLoop$919                 CoreGameLoop
     00002D2A  A$CoreGameLoop$920                 CoreGameLoop
     00002D2B  A$CoreGameLoop$921                 CoreGameLoop
     00002D2C  A$CoreGameLoop$922                 CoreGameLoop
     00002D2F  A$CoreGameLoop$923                 CoreGameLoop
     00002D30  A$CoreGameLoop$924                 CoreGameLoop
     00002D31  A$CoreGameLoop$925                 CoreGameLoop
     00002D34  A$CoreGameLoop$929                 CoreGameLoop
ASxxxx Linker V03.00/V05.40 + sdld,  page 50.
Hexadecimal  [32-Bits]

Area                                    Addr        Size        Decimal Bytes (Attributes)
--------------------------------        ----        ----        ------- ----- ------------
_CODE                               00000200    0000601F =       24607. bytes (REL,CON)

      Value  Global                              Global Defined In Module
      -----  --------------------------------   ------------------------
     00002D34  C$CoreGameLoop.c$144$2_0$185       CoreGameLoop
     00002D37  A$CoreGameLoop$930                 CoreGameLoop
     00002D38  A$CoreGameLoop$931                 CoreGameLoop
     00002D39  A$CoreGameLoop$932                 CoreGameLoop
     00002D3A  A$CoreGameLoop$933                 CoreGameLoop
     00002D3D  A$CoreGameLoop$934                 CoreGameLoop
     00002D3E  A$CoreGameLoop$935                 CoreGameLoop
     00002D3F  A$CoreGameLoop$936                 CoreGameLoop
     00002D40  A$CoreGameLoop$937                 CoreGameLoop
     00002D42  A$CoreGameLoop$938                 CoreGameLoop
     00002D43  A$CoreGameLoop$939                 CoreGameLoop
     00002D44  A$CoreGameLoop$940                 CoreGameLoop
     00002D47  A$CoreGameLoop$941                 CoreGameLoop
     00002D48  A$CoreGameLoop$942                 CoreGameLoop
     00002D49  A$CoreGameLoop$943                 CoreGameLoop
     00002D4C  A$CoreGameLoop$947                 CoreGameLoop
     00002D4C  C$CoreGameLoop.c$145$2_0$185       CoreGameLoop
     00002D4F  A$CoreGameLoop$948                 CoreGameLoop
     00002D51  A$CoreGameLoop$949                 CoreGameLoop
     00002D52  A$CoreGameLoop$950                 CoreGameLoop
     00002D55  A$CoreGameLoop$951                 CoreGameLoop
     00002D56  A$CoreGameLoop$952                 CoreGameLoop
     00002D57  A$CoreGameLoop$953                 CoreGameLoop
     00002D58  A$CoreGameLoop$954                 CoreGameLoop
     00002D5A  A$CoreGameLoop$955                 CoreGameLoop
     00002D5B  A$CoreGameLoop$956                 CoreGameLoop
     00002D5C  A$CoreGameLoop$957                 CoreGameLoop
     00002D5F  A$CoreGameLoop$958                 CoreGameLoop
     00002D60  A$CoreGameLoop$959                 CoreGameLoop
     00002D61  A$CoreGameLoop$960                 CoreGameLoop
     00002D64  A$CoreGameLoop$964                 CoreGameLoop
     00002D64  C$CoreGameLoop.c$146$2_0$185       CoreGameLoop
     00002D67  A$CoreGameLoop$965                 CoreGameLoop
     00002D69  A$CoreGameLoop$966                 CoreGameLoop
     00002D6A  A$CoreGameLoop$967                 CoreGameLoop
     00002D6D  A$CoreGameLoop$968                 CoreGameLoop
     00002D6E  A$CoreGameLoop$969                 CoreGameLoop
     00002D6F  A$CoreGameLoop$970                 CoreGameLoop
     00002D70  A$CoreGameLoop$971                 CoreGameLoop
     00002D72  A$CoreGameLoop$972                 CoreGameLoop
     00002D73  A$CoreGameLoop$973                 CoreGameLoop
     00002D74  A$CoreGameLoop$974                 CoreGameLoop
     00002D77  A$CoreGameLoop$975                 CoreGameLoop
     00002D78  A$CoreGameLoop$976                 CoreGameLoop
     00002D79  A$CoreGameLoop$977                 CoreGameLoop
     00002D7C  A$CoreGameLoop$981                 CoreGameLoop
     00002D7C  C$CoreGameLoop.c$148$2_0$185       CoreGameLoop
     00002D7F  A$CoreGameLoop$982                 CoreGameLoop
     00002D81  A$CoreGameLoop$983                 CoreGameLoop
     00002D82  A$CoreGameLoop$984                 CoreGameLoop
     00002D85  A$CoreGameLoop$985                 CoreGameLoop
ASxxxx Linker V03.00/V05.40 + sdld,  page 51.
Hexadecimal  [32-Bits]

Area                                    Addr        Size        Decimal Bytes (Attributes)
--------------------------------        ----        ----        ------- ----- ------------
_CODE                               00000200    0000601F =       24607. bytes (REL,CON)

      Value  Global                              Global Defined In Module
      -----  --------------------------------   ------------------------
     00002D86  A$CoreGameLoop$986                 CoreGameLoop
     00002D88  A$CoreGameLoop$987                 CoreGameLoop
     00002D89  A$CoreGameLoop$988                 CoreGameLoop
     00002D8A  A$CoreGameLoop$989                 CoreGameLoop
     00002D8D  A$CoreGameLoop$990                 CoreGameLoop
     00002D90  A$CoreGameLoop$994                 CoreGameLoop
     00002D90  C$CoreGameLoop.c$149$2_0$185       CoreGameLoop
     00002D93  A$CoreGameLoop$995                 CoreGameLoop
     00002D95  A$CoreGameLoop$996                 CoreGameLoop
     00002D96  A$CoreGameLoop$997                 CoreGameLoop
     00002D99  A$CoreGameLoop$998                 CoreGameLoop
     00002D9A  A$CoreGameLoop$999                 CoreGameLoop
     00002D9B  A$CoreGameLoop$1000                CoreGameLoop
     00002D9D  A$CoreGameLoop$1001                CoreGameLoop
     00002D9E  A$CoreGameLoop$1002                CoreGameLoop
     00002D9F  A$CoreGameLoop$1003                CoreGameLoop
     00002DA2  A$CoreGameLoop$1004                CoreGameLoop
     00002DA3  A$CoreGameLoop$1005                CoreGameLoop
     00002DA4  A$CoreGameLoop$1006                CoreGameLoop
     00002DA7  A$CoreGameLoop$1010                CoreGameLoop
     00002DA7  C$CoreGameLoop.c$150$2_0$185       CoreGameLoop
     00002DAA  A$CoreGameLoop$1011                CoreGameLoop
     00002DAC  A$CoreGameLoop$1012                CoreGameLoop
     00002DAD  A$CoreGameLoop$1013                CoreGameLoop
     00002DB0  A$CoreGameLoop$1014                CoreGameLoop
     00002DB2  A$CoreGameLoop$1015                CoreGameLoop
     00002DB3  A$CoreGameLoop$1016                CoreGameLoop
     00002DB5  A$CoreGameLoop$1017                CoreGameLoop
     00002DB6  A$CoreGameLoop$1018                CoreGameLoop
     00002DB7  A$CoreGameLoop$1019                CoreGameLoop
     00002DBA  A$CoreGameLoop$1020                CoreGameLoop
     00002DBB  A$CoreGameLoop$1021                CoreGameLoop
     00002DBC  A$CoreGameLoop$1022                CoreGameLoop
     00002DBF  A$CoreGameLoop$1026                CoreGameLoop
     00002DBF  C$CoreGameLoop.c$151$2_0$185       CoreGameLoop
     00002DC2  A$CoreGameLoop$1027                CoreGameLoop
     00002DC4  A$CoreGameLoop$1028                CoreGameLoop
     00002DC5  A$CoreGameLoop$1029                CoreGameLoop
     00002DC8  A$CoreGameLoop$1030                CoreGameLoop
     00002DCA  A$CoreGameLoop$1031                CoreGameLoop
     00002DCB  A$CoreGameLoop$1032                CoreGameLoop
     00002DCD  A$CoreGameLoop$1033                CoreGameLoop
     00002DCE  A$CoreGameLoop$1034                CoreGameLoop
     00002DCF  A$CoreGameLoop$1035                CoreGameLoop
     00002DD2  A$CoreGameLoop$1036                CoreGameLoop
     00002DD3  A$CoreGameLoop$1037                CoreGameLoop
     00002DD4  A$CoreGameLoop$1038                CoreGameLoop
     00002DD7  A$CoreGameLoop$1042                CoreGameLoop
     00002DD7  C$CoreGameLoop.c$152$2_0$185       CoreGameLoop
     00002DDA  A$CoreGameLoop$1043                CoreGameLoop
     00002DDC  A$CoreGameLoop$1044                CoreGameLoop
ASxxxx Linker V03.00/V05.40 + sdld,  page 52.
Hexadecimal  [32-Bits]

Area                                    Addr        Size        Decimal Bytes (Attributes)
--------------------------------        ----        ----        ------- ----- ------------
_CODE                               00000200    0000601F =       24607. bytes (REL,CON)

      Value  Global                              Global Defined In Module
      -----  --------------------------------   ------------------------
     00002DDD  A$CoreGameLoop$1045                CoreGameLoop
     00002DE0  A$CoreGameLoop$1046                CoreGameLoop
     00002DE2  A$CoreGameLoop$1047                CoreGameLoop
     00002DE3  A$CoreGameLoop$1048                CoreGameLoop
     00002DE5  A$CoreGameLoop$1049                CoreGameLoop
     00002DE6  A$CoreGameLoop$1050                CoreGameLoop
     00002DE7  A$CoreGameLoop$1051                CoreGameLoop
     00002DEA  A$CoreGameLoop$1052                CoreGameLoop
     00002DEB  A$CoreGameLoop$1053                CoreGameLoop
     00002DEC  A$CoreGameLoop$1054                CoreGameLoop
     00002DEF  A$CoreGameLoop$1059                CoreGameLoop
     00002DEF  C$CoreGameLoop.c$154$1_0$173       CoreGameLoop
     00002DF2  A$CoreGameLoop$1060                CoreGameLoop
     00002DF3  A$CoreGameLoop$1061                CoreGameLoop
     00002DF5  A$CoreGameLoop$1065                CoreGameLoop
     00002DF5  C$CoreGameLoop.c$156$2_0$186       CoreGameLoop
     00002DF8  A$CoreGameLoop$1069                CoreGameLoop
     00002DF8  C$CoreGameLoop.c$157$2_0$186       CoreGameLoop
     00002DFB  A$CoreGameLoop$1073                CoreGameLoop
     00002DFB  C$CoreGameLoop.c$158$2_0$186       CoreGameLoop
     00002DFE  A$CoreGameLoop$1074                CoreGameLoop
     00002E00  A$CoreGameLoop$1079                CoreGameLoop
     00002E00  C$CoreGameLoop.c$161$1_0$173       CoreGameLoop
     00002E02  A$CoreGameLoop$1087                CoreGameLoop
     00002E02  C$CoreGameLoop.c$162$1_0$173       CoreGameLoop
     00002E02  XG$CoreGameLoopUpdate$0$0          CoreGameLoop
     00002E03  FCoreGameLoop$__str_3$0_0$0        CoreGameLoop
     00002E0B  FCoreGameLoop$__str_4$0_0$0        CoreGameLoop
     00002E10  FCoreGameLoop$__str_5$0_0$0        CoreGameLoop
     00002E16  FCoreGameLoop$__str_6$0_0$0        CoreGameLoop
     00002E1A  FCoreGameLoop$__str_7$0_0$0        CoreGameLoop
     00002E20  FCoreGameLoop$__str_8$0_0$0        CoreGameLoop
     00002E25  FCoreGameLoop$__str_9$0_0$0        CoreGameLoop
     00002E28  FCoreGameLoop$__str_10$0_0$0       CoreGameLoop
     00002E2B  FCoreGameLoop$__str_11$0_0$0       CoreGameLoop
     00002E2E  G$JohnDoe_Map$0_0$0                JohnDoe_Map
     00002E2E  _JohnDoe_Map                       JohnDoe_Map
     00002F96  G$JohnDoe_Tiles$0_0$0              JohnDoe_Tiles
     00002F96  _JohnDoe_Tiles                     JohnDoe_Tiles
     00003496  A$GameJohnDoe$78                   GameJohnDoe
     00003496  C$GameJohnDoe.c$16$0_0$137         GameJohnDoe
     00003496  G$scanline_isr$0$0                 GameJohnDoe
     00003496  _scanline_isr                      GameJohnDoe
     00003497  A$GameJohnDoe$79                   GameJohnDoe
     00003498  A$GameJohnDoe$80                   GameJohnDoe
     00003499  A$GameJohnDoe$81                   GameJohnDoe
     0000349A  A$GameJohnDoe$85                   GameJohnDoe
     0000349A  C$GameJohnDoe.c$17$1_0$137         GameJohnDoe
     0000349C  A$GameJohnDoe$86                   GameJohnDoe
     0000349E  A$GameJohnDoe$87                   GameJohnDoe
     0000349F  A$GameJohnDoe$88                   GameJohnDoe
ASxxxx Linker V03.00/V05.40 + sdld,  page 53.
Hexadecimal  [32-Bits]

Area                                    Addr        Size        Decimal Bytes (Attributes)
--------------------------------        ----        ----        ------- ----- ------------
_CODE                               00000200    0000601F =       24607. bytes (REL,CON)

      Value  Global                              Global Defined In Module
      -----  --------------------------------   ------------------------
     000034A2  A$GameJohnDoe$89                   GameJohnDoe
     000034A3  A$GameJohnDoe$90                   GameJohnDoe
     000034A4  A$GameJohnDoe$91                   GameJohnDoe
     000034A5  A$GameJohnDoe$92                   GameJohnDoe
     000034A6  A$GameJohnDoe$93                   GameJohnDoe
     000034A8  A$GameJohnDoe$94                   GameJohnDoe
     000034A9  A$GameJohnDoe$95                   GameJohnDoe
     000034AA  A$GameJohnDoe$96                   GameJohnDoe
     000034AC  A$GameJohnDoe$100                  GameJohnDoe
     000034AD  A$GameJohnDoe$101                  GameJohnDoe
     000034AE  A$GameJohnDoe$102                  GameJohnDoe
     000034AF  A$GameJohnDoe$103                  GameJohnDoe
     000034B0  A$GameJohnDoe$108                  GameJohnDoe
     000034B0  C$GameJohnDoe.c$18$1_0$137         GameJohnDoe
     000034B0  XG$scanline_isr$0$0                GameJohnDoe
     000034B1  G$scanline_offsets_tbl$0_0$0       GameJohnDoe
     000034B1  _scanline_offsets_tbl              GameJohnDoe
     000034C1  G$scanline_normal_tbl$0_0$0        GameJohnDoe
     000034C1  _scanline_normal_tbl               GameJohnDoe
     000034D1  A$GameJohnDoe$155                  GameJohnDoe
     000034D1  C$GameJohnDoe.c$28$1_0$139         GameJohnDoe
     000034D1  G$GameJohnDoeSetup$0$0             GameJohnDoe
     000034D1  _GameJohnDoeSetup                  GameJohnDoe
     000034D2  A$GameJohnDoe$156                  GameJohnDoe
     000034D4  A$GameJohnDoe$157                  GameJohnDoe
     000034D5  A$GameJohnDoe$158                  GameJohnDoe
     000034D7  A$GameJohnDoe$162                  GameJohnDoe
     000034D7  C$GameJohnDoe.c$31$1_0$139         GameJohnDoe
     000034DA  A$GameJohnDoe$163                  GameJohnDoe
     000034DB  A$GameJohnDoe$164                  GameJohnDoe
     000034DE  A$GameJohnDoe$165                  GameJohnDoe
     000034DF  A$GameJohnDoe$166                  GameJohnDoe
     000034E2  A$GameJohnDoe$167                  GameJohnDoe
     000034E4  A$GameJohnDoe$171                  GameJohnDoe
     000034E4  C$GameJohnDoe.c$32$1_0$139         GameJohnDoe
     000034E7  A$GameJohnDoe$172                  GameJohnDoe
     000034E8  A$GameJohnDoe$173                  GameJohnDoe
     000034EB  A$GameJohnDoe$174                  GameJohnDoe
     000034EC  A$GameJohnDoe$175                  GameJohnDoe
     000034ED  A$GameJohnDoe$176                  GameJohnDoe
     000034EE  A$GameJohnDoe$177                  GameJohnDoe
     000034EF  A$GameJohnDoe$178                  GameJohnDoe
     000034F2  A$GameJohnDoe$179                  GameJohnDoe
     000034F4  A$GameJohnDoe$183                  GameJohnDoe
     000034F4  C$GameJohnDoe.c$33$1_0$139         GameJohnDoe
     000034F6  A$GameJohnDoe$184                  GameJohnDoe
     000034F8  A$GameJohnDoe$185                  GameJohnDoe
     000034FA  A$GameJohnDoe$189                  GameJohnDoe
     000034FA  C$GameJohnDoe.c$34$1_0$139         GameJohnDoe
     000034FC  A$GameJohnDoe$197                  GameJohnDoe
     000034FC  C$GameJohnDoe.c$35$1_0$139         GameJohnDoe
ASxxxx Linker V03.00/V05.40 + sdld,  page 54.
Hexadecimal  [32-Bits]

Area                                    Addr        Size        Decimal Bytes (Attributes)
--------------------------------        ----        ----        ------- ----- ------------
_CODE                               00000200    0000601F =       24607. bytes (REL,CON)

      Value  Global                              Global Defined In Module
      -----  --------------------------------   ------------------------
     000034FC  XG$GameJohnDoeSetup$0$0            GameJohnDoe
     000034FF  A$GameJohnDoe$210                  GameJohnDoe
     000034FF  C$GameJohnDoe.c$37$1_0$144         GameJohnDoe
     000034FF  C$GameJohnDoe.c$39$1_0$144         GameJohnDoe
     000034FF  G$GameJohnDoeUpdate$0$0            GameJohnDoe
     000034FF  _GameJohnDoeUpdate                 GameJohnDoe
     00003502  A$GameJohnDoe$211                  GameJohnDoe
     00003505  A$GameJohnDoe$215                  GameJohnDoe
     00003505  C$GameJohnDoe.c$40$1_0$144         GameJohnDoe
     00003508  A$GameJohnDoe$216                  GameJohnDoe
     0000350B  A$GameJohnDoe$217                  GameJohnDoe
     0000350C  A$GameJohnDoe$221                  GameJohnDoe
     0000350C  C$GameJohnDoe.c$42$1_0$144         GameJohnDoe
     0000350D  A$GameJohnDoe$222                  GameJohnDoe
     0000350F  A$GameJohnDoe$223                  GameJohnDoe
     00003511  A$GameJohnDoe$224                  GameJohnDoe
     00003514  A$GameJohnDoe$225                  GameJohnDoe
     00003516  A$GameJohnDoe$226                  GameJohnDoe
     00003518  A$GameJohnDoe$227                  GameJohnDoe
     0000351B  A$GameJohnDoe$228                  GameJohnDoe
     0000351D  A$GameJohnDoe$229                  GameJohnDoe
     0000351F  A$GameJohnDoe$230                  GameJohnDoe
     00003522  A$GameJohnDoe$231                  GameJohnDoe
     00003524  A$GameJohnDoe$232                  GameJohnDoe
     00003526  A$GameJohnDoe$233                  GameJohnDoe
     00003529  A$GameJohnDoe$234                  GameJohnDoe
     0000352B  A$GameJohnDoe$235                  GameJohnDoe
     0000352D  A$GameJohnDoe$236                  GameJohnDoe
     0000352F  A$GameJohnDoe$244                  GameJohnDoe
     0000352F  C$GameJohnDoe.c$43$2_0$145         GameJohnDoe
     0000352F  C$GameJohnDoe.c$44$2_0$145         GameJohnDoe
     00003532  A$GameJohnDoe$245                  GameJohnDoe
     00003533  A$GameJohnDoe$246                  GameJohnDoe
     00003535  A$GameJohnDoe$250                  GameJohnDoe
     00003535  C$GameJohnDoe.c$46$3_0$146         GameJohnDoe
     00003538  A$GameJohnDoe$254                  GameJohnDoe
     00003538  C$GameJohnDoe.c$47$3_0$146         GameJohnDoe
     0000353B  A$GameJohnDoe$255                  GameJohnDoe
     0000353D  A$GameJohnDoe$256                  GameJohnDoe
     0000353F  A$GameJohnDoe$261                  GameJohnDoe
     0000353F  C$GameJohnDoe.c$50$3_0$147         GameJohnDoe
     00003542  A$GameJohnDoe$265                  GameJohnDoe
     00003542  C$GameJohnDoe.c$51$3_0$147         GameJohnDoe
     00003545  A$GameJohnDoe$266                  GameJohnDoe
     00003547  A$GameJohnDoe$270                  GameJohnDoe
     00003547  C$GameJohnDoe.c$53$2_0$145         GameJohnDoe
     00003549  A$GameJohnDoe$278                  GameJohnDoe
     00003549  C$GameJohnDoe.c$54$2_0$145         GameJohnDoe
     00003549  C$GameJohnDoe.c$55$2_0$145         GameJohnDoe
     0000354B  A$GameJohnDoe$279                  GameJohnDoe
     0000354E  A$GameJohnDoe$283                  GameJohnDoe
ASxxxx Linker V03.00/V05.40 + sdld,  page 55.
Hexadecimal  [32-Bits]

Area                                    Addr        Size        Decimal Bytes (Attributes)
--------------------------------        ----        ----        ------- ----- ------------
_CODE                               00000200    0000601F =       24607. bytes (REL,CON)

      Value  Global                              Global Defined In Module
      -----  --------------------------------   ------------------------
     0000354E  C$GameJohnDoe.c$56$2_0$145         GameJohnDoe
     00003550  A$GameJohnDoe$284                  GameJohnDoe
     00003553  A$GameJohnDoe$288                  GameJohnDoe
     00003553  C$GameJohnDoe.c$57$2_0$145         GameJohnDoe
     00003555  A$GameJohnDoe$296                  GameJohnDoe
     00003555  C$GameJohnDoe.c$58$2_0$145         GameJohnDoe
     00003555  C$GameJohnDoe.c$59$2_0$145         GameJohnDoe
     00003557  A$GameJohnDoe$297                  GameJohnDoe
     0000355A  A$GameJohnDoe$301                  GameJohnDoe
     0000355A  C$GameJohnDoe.c$60$2_0$145         GameJohnDoe
     0000355C  A$GameJohnDoe$302                  GameJohnDoe
     0000355F  A$GameJohnDoe$306                  GameJohnDoe
     0000355F  C$GameJohnDoe.c$61$2_0$145         GameJohnDoe
     00003561  A$GameJohnDoe$314                  GameJohnDoe
     00003561  C$GameJohnDoe.c$62$2_0$145         GameJohnDoe
     00003561  C$GameJohnDoe.c$63$2_0$145         GameJohnDoe
     00003564  A$GameJohnDoe$315                  GameJohnDoe
     00003565  A$GameJohnDoe$316                  GameJohnDoe
     00003567  A$GameJohnDoe$320                  GameJohnDoe
     00003567  C$GameJohnDoe.c$66$3_0$148         GameJohnDoe
     00003569  A$GameJohnDoe$321                  GameJohnDoe
     0000356B  A$GameJohnDoe$325                  GameJohnDoe
     0000356B  C$GameJohnDoe.c$67$3_0$148         GameJohnDoe
     0000356D  A$GameJohnDoe$326                  GameJohnDoe
     00003570  A$GameJohnDoe$330                  GameJohnDoe
     00003570  C$GameJohnDoe.c$69$3_0$148         GameJohnDoe
     00003573  A$GameJohnDoe$331                  GameJohnDoe
     00003575  A$GameJohnDoe$332                  GameJohnDoe
     00003577  A$GameJohnDoe$337                  GameJohnDoe
     00003577  C$GameJohnDoe.c$73$3_0$149         GameJohnDoe
     0000357A  A$GameJohnDoe$338                  GameJohnDoe
     0000357C  A$GameJohnDoe$342                  GameJohnDoe
     0000357C  C$GameJohnDoe.c$75$2_0$145         GameJohnDoe
     0000357E  A$GameJohnDoe$350                  GameJohnDoe
     0000357E  C$GameJohnDoe.c$76$2_0$145         GameJohnDoe
     0000357E  C$GameJohnDoe.c$77$2_0$145         GameJohnDoe
     00003580  A$GameJohnDoe$351                  GameJohnDoe
     00003583  A$GameJohnDoe$355                  GameJohnDoe
     00003583  C$GameJohnDoe.c$78$2_0$145         GameJohnDoe
     00003585  A$GameJohnDoe$356                  GameJohnDoe
     00003586  A$GameJohnDoe$364                  GameJohnDoe
     00003586  C$GameJohnDoe.c$79$2_0$145         GameJohnDoe
     00003586  C$GameJohnDoe.c$80$2_0$145         GameJohnDoe
     00003589  A$GameJohnDoe$365                  GameJohnDoe
     0000358A  A$GameJohnDoe$366                  GameJohnDoe
     0000358B  A$GameJohnDoe$367                  GameJohnDoe
     0000358C  A$GameJohnDoe$368                  GameJohnDoe
     0000358E  A$GameJohnDoe$369                  GameJohnDoe
     00003590  A$GameJohnDoe$370                  GameJohnDoe
     00003592  A$GameJohnDoe$371                  GameJohnDoe
     00003594  A$GameJohnDoe$372                  GameJohnDoe
ASxxxx Linker V03.00/V05.40 + sdld,  page 56.
Hexadecimal  [32-Bits]

Area                                    Addr        Size        Decimal Bytes (Attributes)
--------------------------------        ----        ----        ------- ----- ------------
_CODE                               00000200    0000601F =       24607. bytes (REL,CON)

      Value  Global                              Global Defined In Module
      -----  --------------------------------   ------------------------
     00003595  A$GameJohnDoe$373                  GameJohnDoe
     00003597  A$GameJohnDoe$374                  GameJohnDoe
     00003599  A$GameJohnDoe$375                  GameJohnDoe
     0000359B  A$GameJohnDoe$376                  GameJohnDoe
     0000359C  A$GameJohnDoe$377                  GameJohnDoe
     0000359D  A$GameJohnDoe$378                  GameJohnDoe
     0000359F  A$GameJohnDoe$379                  GameJohnDoe
     000035A2  A$GameJohnDoe$380                  GameJohnDoe
     000035A3  A$GameJohnDoe$381                  GameJohnDoe
     000035A4  A$GameJohnDoe$382                  GameJohnDoe
     000035A5  A$GameJohnDoe$390                  GameJohnDoe
     000035A5  C$GameJohnDoe.c$81$1_0$144         GameJohnDoe
     000035A5  C$GameJohnDoe.c$83$1_0$144         GameJohnDoe
     000035A7  A$GameJohnDoe$398                  GameJohnDoe
     000035A7  C$GameJohnDoe.c$84$1_0$144         GameJohnDoe
     000035A7  XG$GameJohnDoeUpdate$0$0           GameJohnDoe
     000035A8  G$Crow_Tiles$0_0$0                 Crow_Tiles
     000035A8  _Crow_Tiles                        Crow_Tiles
     00003738  G$Crow_Map$0_0$0                   Crow_Map
     00003738  _Crow_Map                          Crow_Map
     0000375B  A$Bestiary$66                      Bestiary
     0000375B  C$Bestiary.c$48$0_0$137            Bestiary
     0000375B  G$BestiarySetup$0$0                Bestiary
     0000375B  _BestiarySetup                     Bestiary
     0000375C  A$Bestiary$67                      Bestiary
     0000375E  A$Bestiary$68                      Bestiary
     0000375F  A$Bestiary$69                      Bestiary
     00003761  A$Bestiary$73                      Bestiary
     00003761  C$Bestiary.c$51$1_0$137            Bestiary
     00003764  A$Bestiary$74                      Bestiary
     00003765  A$Bestiary$75                      Bestiary
     00003768  A$Bestiary$76                      Bestiary
     00003769  A$Bestiary$77                      Bestiary
     0000376C  A$Bestiary$78                      Bestiary
     0000376E  A$Bestiary$82                      Bestiary
     0000376E  C$Bestiary.c$52$1_0$137            Bestiary
     00003771  A$Bestiary$83                      Bestiary
     00003772  A$Bestiary$84                      Bestiary
     00003775  A$Bestiary$85                      Bestiary
     00003776  A$Bestiary$86                      Bestiary
     00003777  A$Bestiary$87                      Bestiary
     00003778  A$Bestiary$88                      Bestiary
     00003779  A$Bestiary$89                      Bestiary
     0000377C  A$Bestiary$90                      Bestiary
     0000377E  A$Bestiary$94                      Bestiary
     0000377E  C$Bestiary.c$53$1_0$137            Bestiary
     00003780  A$Bestiary$95                      Bestiary
     00003782  A$Bestiary$96                      Bestiary
     00003784  A$Bestiary$100                     Bestiary
     00003784  C$Bestiary.c$54$1_0$137            Bestiary
     00003786  A$Bestiary$108                     Bestiary
ASxxxx Linker V03.00/V05.40 + sdld,  page 57.
Hexadecimal  [32-Bits]

Area                                    Addr        Size        Decimal Bytes (Attributes)
--------------------------------        ----        ----        ------- ----- ------------
_CODE                               00000200    0000601F =       24607. bytes (REL,CON)

      Value  Global                              Global Defined In Module
      -----  --------------------------------   ------------------------
     00003786  C$Bestiary.c$55$1_0$137            Bestiary
     00003786  XG$BestiarySetup$0$0               Bestiary
     00003789  A$Bestiary$121                     Bestiary
     00003789  C$Bestiary.c$57$1_0$142            Bestiary
     00003789  C$Bestiary.c$59$1_0$142            Bestiary
     00003789  G$BestiaryUpdate$0$0               Bestiary
     00003789  _BestiaryUpdate                    Bestiary
     0000378C  A$Bestiary$122                     Bestiary
     0000378F  A$Bestiary$126                     Bestiary
     0000378F  C$Bestiary.c$60$1_0$142            Bestiary
     00003792  A$Bestiary$127                     Bestiary
     00003795  A$Bestiary$128                     Bestiary
     00003796  A$Bestiary$132                     Bestiary
     00003798  A$Bestiary$133                     Bestiary
     0000379A  A$Bestiary$134                     Bestiary
     0000379D  A$Bestiary$135                     Bestiary
     0000379F  A$Bestiary$136                     Bestiary
     000037A1  A$Bestiary$140                     Bestiary
     000037A1  C$Bestiary.c$64$2_0$143            Bestiary
     000037A4  A$Bestiary$141                     Bestiary
     000037A5  A$Bestiary$142                     Bestiary
     000037A6  A$Bestiary$143                     Bestiary
     000037A7  A$Bestiary$144                     Bestiary
     000037A8  A$Bestiary$145                     Bestiary
     000037AA  A$Bestiary$146                     Bestiary
     000037AC  A$Bestiary$150                     Bestiary
     000037AC  C$Bestiary.c$66$3_0$144            Bestiary
     000037AD  A$Bestiary$154                     Bestiary
     000037AD  C$Bestiary.c$67$3_0$144            Bestiary
     000037B0  A$Bestiary$155                     Bestiary
     000037B1  A$Bestiary$156                     Bestiary
     000037B4  A$Bestiary$157                     Bestiary
     000037B5  A$Bestiary$158                     Bestiary
     000037B6  A$Bestiary$159                     Bestiary
     000037B7  A$Bestiary$160                     Bestiary
     000037B8  A$Bestiary$161                     Bestiary
     000037BB  A$Bestiary$162                     Bestiary
     000037BD  A$Bestiary$167                     Bestiary
     000037BD  C$Bestiary.c$70$1_0$142            Bestiary
     000037C0  A$Bestiary$168                     Bestiary
     000037C1  A$Bestiary$169                     Bestiary
     000037C3  A$Bestiary$170                     Bestiary
     000037C6  A$Bestiary$171                     Bestiary
     000037C7  A$Bestiary$172                     Bestiary
     000037C9  A$Bestiary$176                     Bestiary
     000037C9  C$Bestiary.c$72$2_0$145            Bestiary
     000037CC  A$Bestiary$177                     Bestiary
     000037CD  A$Bestiary$178                     Bestiary
     000037CE  A$Bestiary$179                     Bestiary
     000037CF  A$Bestiary$180                     Bestiary
     000037D0  A$Bestiary$181                     Bestiary
ASxxxx Linker V03.00/V05.40 + sdld,  page 58.
Hexadecimal  [32-Bits]

Area                                    Addr        Size        Decimal Bytes (Attributes)
--------------------------------        ----        ----        ------- ----- ------------
_CODE                               00000200    0000601F =       24607. bytes (REL,CON)

      Value  Global                              Global Defined In Module
      -----  --------------------------------   ------------------------
     000037D1  A$Bestiary$182                     Bestiary
     000037D3  A$Bestiary$183                     Bestiary
     000037D5  A$Bestiary$184                     Bestiary
     000037D6  A$Bestiary$185                     Bestiary
     000037D8  A$Bestiary$186                     Bestiary
     000037D9  A$Bestiary$187                     Bestiary
     000037DB  A$Bestiary$188                     Bestiary
     000037DD  A$Bestiary$189                     Bestiary
     000037DF  A$Bestiary$190                     Bestiary
     000037E1  A$Bestiary$191                     Bestiary
     000037E2  A$Bestiary$192                     Bestiary
     000037E4  A$Bestiary$194                     Bestiary
     000037E6  A$Bestiary$195                     Bestiary
     000037E8  A$Bestiary$196                     Bestiary
     000037E9  A$Bestiary$198                     Bestiary
     000037EB  A$Bestiary$202                     Bestiary
     000037EB  C$Bestiary.c$74$3_0$146            Bestiary
     000037EE  A$Bestiary$203                     Bestiary
     000037EF  A$Bestiary$207                     Bestiary
     000037EF  C$Bestiary.c$75$3_0$146            Bestiary
     000037F2  A$Bestiary$208                     Bestiary
     000037F3  A$Bestiary$209                     Bestiary
     000037F6  A$Bestiary$210                     Bestiary
     000037F7  A$Bestiary$211                     Bestiary
     000037F8  A$Bestiary$212                     Bestiary
     000037F9  A$Bestiary$213                     Bestiary
     000037FA  A$Bestiary$214                     Bestiary
     000037FD  A$Bestiary$215                     Bestiary
     000037FF  A$Bestiary$220                     Bestiary
     000037FF  C$Bestiary.c$78$1_0$142            Bestiary
     00003802  A$Bestiary$221                     Bestiary
     00003803  A$Bestiary$222                     Bestiary
     00003805  A$Bestiary$226                     Bestiary
     00003805  C$Bestiary.c$80$2_0$147            Bestiary
     00003808  A$Bestiary$231                     Bestiary
     00003808  C$Bestiary.c$62$1_0$142            Bestiary
     0000380B  A$Bestiary$235                     Bestiary
     0000380B  C$Bestiary.c$94$1_0$142            Bestiary
     0000380D  A$Bestiary$236                     Bestiary
     0000380F  A$Bestiary$240                     Bestiary
     0000380F  C$Bestiary.c$96$2_0$148            Bestiary
     00003811  A$Bestiary$241                     Bestiary
     00003814  A$Bestiary$245                     Bestiary
     00003814  C$Bestiary.c$97$2_0$148            Bestiary
     00003816  A$Bestiary$246                     Bestiary
     00003817  A$Bestiary$251                     Bestiary
     00003817  C$Bestiary.c$99$1_0$142            Bestiary
     00003819  A$Bestiary$252                     Bestiary
     0000381B  A$Bestiary$256                     Bestiary
     0000381B  C$Bestiary.c$101$2_0$149           Bestiary
     0000381D  A$Bestiary$257                     Bestiary
ASxxxx Linker V03.00/V05.40 + sdld,  page 59.
Hexadecimal  [32-Bits]

Area                                    Addr        Size        Decimal Bytes (Attributes)
--------------------------------        ----        ----        ------- ----- ------------
_CODE                               00000200    0000601F =       24607. bytes (REL,CON)

      Value  Global                              Global Defined In Module
      -----  --------------------------------   ------------------------
     00003820  A$Bestiary$261                     Bestiary
     00003820  C$Bestiary.c$102$2_0$149           Bestiary
     00003822  A$Bestiary$262                     Bestiary
     00003825  A$Bestiary$266                     Bestiary
     00003825  C$Bestiary.c$103$2_0$149           Bestiary
     00003827  A$Bestiary$267                     Bestiary
     0000382A  A$Bestiary$271                     Bestiary
     0000382A  C$Bestiary.c$104$2_0$149           Bestiary
     0000382C  A$Bestiary$272                     Bestiary
     0000382F  A$Bestiary$276                     Bestiary
     0000382F  C$Bestiary.c$105$2_0$149           Bestiary
     00003831  A$Bestiary$277                     Bestiary
     00003834  A$Bestiary$281                     Bestiary
     00003834  C$Bestiary.c$106$2_0$149           Bestiary
     00003836  A$Bestiary$282                     Bestiary
     00003837  A$Bestiary$287                     Bestiary
     00003837  C$Bestiary.c$108$1_0$142           Bestiary
     0000383A  A$Bestiary$288                     Bestiary
     0000383B  A$Bestiary$289                     Bestiary
     0000383E  A$Bestiary$293                     Bestiary
     0000383E  C$Bestiary.c$110$2_0$150           Bestiary
     00003841  A$Bestiary$294                     Bestiary
     00003842  A$Bestiary$295                     Bestiary
     00003845  A$Bestiary$296                     Bestiary
     00003846  A$Bestiary$297                     Bestiary
     00003849  A$Bestiary$298                     Bestiary
     0000384B  A$Bestiary$302                     Bestiary
     0000384B  C$Bestiary.c$111$2_0$150           Bestiary
     0000384E  A$Bestiary$303                     Bestiary
     0000384F  A$Bestiary$304                     Bestiary
     00003852  A$Bestiary$305                     Bestiary
     00003853  A$Bestiary$306                     Bestiary
     00003856  A$Bestiary$307                     Bestiary
     00003857  A$Bestiary$308                     Bestiary
     0000385A  A$Bestiary$309                     Bestiary
     0000385C  A$Bestiary$313                     Bestiary
     0000385C  C$Bestiary.c$112$2_0$150           Bestiary
     0000385F  A$Bestiary$314                     Bestiary
     00003860  A$Bestiary$315                     Bestiary
     00003863  A$Bestiary$316                     Bestiary
     00003864  A$Bestiary$317                     Bestiary
     00003866  A$Bestiary$318                     Bestiary
     00003868  A$Bestiary$319                     Bestiary
     0000386B  A$Bestiary$323                     Bestiary
     0000386B  C$Bestiary.c$114$2_0$150           Bestiary
     0000386E  A$Bestiary$324                     Bestiary
     0000386F  A$Bestiary$325                     Bestiary
     00003872  A$Bestiary$326                     Bestiary
     00003873  A$Bestiary$327                     Bestiary
     00003875  A$Bestiary$328                     Bestiary
     00003877  A$Bestiary$329                     Bestiary
ASxxxx Linker V03.00/V05.40 + sdld,  page 60.
Hexadecimal  [32-Bits]

Area                                    Addr        Size        Decimal Bytes (Attributes)
--------------------------------        ----        ----        ------- ----- ------------
_CODE                               00000200    0000601F =       24607. bytes (REL,CON)

      Value  Global                              Global Defined In Module
      -----  --------------------------------   ------------------------
     0000387A  A$Bestiary$333                     Bestiary
     0000387A  C$Bestiary.c$115$2_0$150           Bestiary
     0000387D  A$Bestiary$334                     Bestiary
     0000387E  A$Bestiary$335                     Bestiary
     00003881  A$Bestiary$336                     Bestiary
     00003882  A$Bestiary$337                     Bestiary
     00003884  A$Bestiary$338                     Bestiary
     00003886  A$Bestiary$339                     Bestiary
     00003889  A$Bestiary$343                     Bestiary
     00003889  C$Bestiary.c$116$2_0$150           Bestiary
     0000388C  A$Bestiary$344                     Bestiary
     0000388D  A$Bestiary$345                     Bestiary
     00003890  A$Bestiary$346                     Bestiary
     00003891  A$Bestiary$347                     Bestiary
     00003893  A$Bestiary$348                     Bestiary
     00003895  A$Bestiary$349                     Bestiary
     00003898  A$Bestiary$353                     Bestiary
     00003898  C$Bestiary.c$117$2_0$150           Bestiary
     0000389B  A$Bestiary$354                     Bestiary
     0000389C  A$Bestiary$355                     Bestiary
     0000389F  A$Bestiary$356                     Bestiary
     000038A0  A$Bestiary$357                     Bestiary
     000038A2  A$Bestiary$358                     Bestiary
     000038A4  A$Bestiary$359                     Bestiary
     000038A7  A$Bestiary$363                     Bestiary
     000038A7  C$Bestiary.c$118$2_0$150           Bestiary
     000038AA  A$Bestiary$364                     Bestiary
     000038AB  A$Bestiary$365                     Bestiary
     000038AE  A$Bestiary$366                     Bestiary
     000038AF  A$Bestiary$367                     Bestiary
     000038B1  A$Bestiary$368                     Bestiary
     000038B3  A$Bestiary$369                     Bestiary
     000038B6  A$Bestiary$373                     Bestiary
     000038B6  C$Bestiary.c$119$2_0$150           Bestiary
     000038B8  A$Bestiary$374                     Bestiary
     000038B9  A$Bestiary$375                     Bestiary
     000038BA  A$Bestiary$376                     Bestiary
     000038BD  A$Bestiary$377                     Bestiary
     000038BE  A$Bestiary$378                     Bestiary
     000038C0  A$Bestiary$379                     Bestiary
     000038C2  A$Bestiary$380                     Bestiary
     000038C5  A$Bestiary$384                     Bestiary
     000038C5  C$Bestiary.c$120$2_0$150           Bestiary
     000038C7  A$Bestiary$385                     Bestiary
     000038C8  A$Bestiary$386                     Bestiary
     000038C9  A$Bestiary$387                     Bestiary
     000038CC  A$Bestiary$388                     Bestiary
     000038CD  A$Bestiary$389                     Bestiary
     000038CF  A$Bestiary$390                     Bestiary
     000038D1  A$Bestiary$391                     Bestiary
     000038D4  A$Bestiary$395                     Bestiary
ASxxxx Linker V03.00/V05.40 + sdld,  page 61.
Hexadecimal  [32-Bits]

Area                                    Addr        Size        Decimal Bytes (Attributes)
--------------------------------        ----        ----        ------- ----- ------------
_CODE                               00000200    0000601F =       24607. bytes (REL,CON)

      Value  Global                              Global Defined In Module
      -----  --------------------------------   ------------------------
     000038D4  C$Bestiary.c$121$2_0$150           Bestiary
     000038D6  A$Bestiary$396                     Bestiary
     000038D7  A$Bestiary$397                     Bestiary
     000038D8  A$Bestiary$398                     Bestiary
     000038DB  A$Bestiary$399                     Bestiary
     000038DC  A$Bestiary$400                     Bestiary
     000038DE  A$Bestiary$401                     Bestiary
     000038E0  A$Bestiary$402                     Bestiary
     000038E3  A$Bestiary$403                     Bestiary
     000038E6  A$Bestiary$408                     Bestiary
     000038E6  C$Bestiary.c$123$1_0$142           Bestiary
     000038E9  A$Bestiary$409                     Bestiary
     000038EA  A$Bestiary$410                     Bestiary
     000038ED  A$Bestiary$414                     Bestiary
     000038ED  C$Bestiary.c$125$2_0$151           Bestiary
     000038F0  A$Bestiary$415                     Bestiary
     000038F1  A$Bestiary$416                     Bestiary
     000038F4  A$Bestiary$417                     Bestiary
     000038F5  A$Bestiary$418                     Bestiary
     000038F8  A$Bestiary$419                     Bestiary
     000038FA  A$Bestiary$423                     Bestiary
     000038FA  C$Bestiary.c$126$2_0$151           Bestiary
     000038FD  A$Bestiary$424                     Bestiary
     000038FE  A$Bestiary$425                     Bestiary
     00003901  A$Bestiary$426                     Bestiary
     00003902  A$Bestiary$427                     Bestiary
     00003905  A$Bestiary$428                     Bestiary
     00003906  A$Bestiary$429                     Bestiary
     00003909  A$Bestiary$430                     Bestiary
     0000390B  A$Bestiary$434                     Bestiary
     0000390B  C$Bestiary.c$127$2_0$151           Bestiary
     0000390E  A$Bestiary$435                     Bestiary
     0000390F  A$Bestiary$436                     Bestiary
     00003912  A$Bestiary$437                     Bestiary
     00003913  A$Bestiary$438                     Bestiary
     00003915  A$Bestiary$439                     Bestiary
     00003917  A$Bestiary$440                     Bestiary
     0000391A  A$Bestiary$444                     Bestiary
     0000391A  C$Bestiary.c$129$2_0$151           Bestiary
     0000391D  A$Bestiary$445                     Bestiary
     0000391E  A$Bestiary$446                     Bestiary
     00003921  A$Bestiary$447                     Bestiary
     00003922  A$Bestiary$448                     Bestiary
     00003924  A$Bestiary$449                     Bestiary
     00003926  A$Bestiary$450                     Bestiary
     00003929  A$Bestiary$454                     Bestiary
     00003929  C$Bestiary.c$130$2_0$151           Bestiary
     0000392C  A$Bestiary$455                     Bestiary
     0000392D  A$Bestiary$456                     Bestiary
     00003930  A$Bestiary$457                     Bestiary
     00003931  A$Bestiary$458                     Bestiary
ASxxxx Linker V03.00/V05.40 + sdld,  page 62.
Hexadecimal  [32-Bits]

Area                                    Addr        Size        Decimal Bytes (Attributes)
--------------------------------        ----        ----        ------- ----- ------------
_CODE                               00000200    0000601F =       24607. bytes (REL,CON)

      Value  Global                              Global Defined In Module
      -----  --------------------------------   ------------------------
     00003933  A$Bestiary$459                     Bestiary
     00003935  A$Bestiary$460                     Bestiary
     00003938  A$Bestiary$464                     Bestiary
     00003938  C$Bestiary.c$131$2_0$151           Bestiary
     0000393B  A$Bestiary$465                     Bestiary
     0000393C  A$Bestiary$466                     Bestiary
     0000393F  A$Bestiary$467                     Bestiary
     00003940  A$Bestiary$468                     Bestiary
     00003942  A$Bestiary$469                     Bestiary
     00003944  A$Bestiary$470                     Bestiary
     00003947  A$Bestiary$474                     Bestiary
     00003947  C$Bestiary.c$132$2_0$151           Bestiary
     0000394A  A$Bestiary$475                     Bestiary
     0000394B  A$Bestiary$476                     Bestiary
     0000394E  A$Bestiary$477                     Bestiary
     0000394F  A$Bestiary$478                     Bestiary
     00003951  A$Bestiary$479                     Bestiary
     00003953  A$Bestiary$480                     Bestiary
     00003956  A$Bestiary$484                     Bestiary
     00003956  C$Bestiary.c$133$2_0$151           Bestiary
     00003959  A$Bestiary$485                     Bestiary
     0000395A  A$Bestiary$486                     Bestiary
     0000395D  A$Bestiary$487                     Bestiary
     0000395E  A$Bestiary$488                     Bestiary
     00003960  A$Bestiary$489                     Bestiary
     00003962  A$Bestiary$490                     Bestiary
     00003965  A$Bestiary$494                     Bestiary
     00003965  C$Bestiary.c$134$2_0$151           Bestiary
     00003967  A$Bestiary$495                     Bestiary
     00003968  A$Bestiary$496                     Bestiary
     00003969  A$Bestiary$497                     Bestiary
     0000396C  A$Bestiary$498                     Bestiary
     0000396D  A$Bestiary$499                     Bestiary
     0000396F  A$Bestiary$500                     Bestiary
     00003971  A$Bestiary$501                     Bestiary
     00003974  A$Bestiary$505                     Bestiary
     00003974  C$Bestiary.c$135$2_0$151           Bestiary
     00003976  A$Bestiary$506                     Bestiary
     00003977  A$Bestiary$507                     Bestiary
     00003978  A$Bestiary$508                     Bestiary
     0000397B  A$Bestiary$509                     Bestiary
     0000397C  A$Bestiary$510                     Bestiary
     0000397E  A$Bestiary$511                     Bestiary
     00003980  A$Bestiary$512                     Bestiary
     00003983  A$Bestiary$516                     Bestiary
     00003983  C$Bestiary.c$136$2_0$151           Bestiary
     00003985  A$Bestiary$517                     Bestiary
     00003986  A$Bestiary$518                     Bestiary
     00003987  A$Bestiary$519                     Bestiary
     0000398A  A$Bestiary$520                     Bestiary
     0000398B  A$Bestiary$521                     Bestiary
ASxxxx Linker V03.00/V05.40 + sdld,  page 63.
Hexadecimal  [32-Bits]

Area                                    Addr        Size        Decimal Bytes (Attributes)
--------------------------------        ----        ----        ------- ----- ------------
_CODE                               00000200    0000601F =       24607. bytes (REL,CON)

      Value  Global                              Global Defined In Module
      -----  --------------------------------   ------------------------
     0000398D  A$Bestiary$522                     Bestiary
     0000398F  A$Bestiary$523                     Bestiary
     00003992  A$Bestiary$524                     Bestiary
     00003995  A$Bestiary$529                     Bestiary
     00003995  C$Bestiary.c$138$1_0$142           Bestiary
     00003998  A$Bestiary$530                     Bestiary
     0000399A  A$Bestiary$531                     Bestiary
     0000399D  A$Bestiary$535                     Bestiary
     0000399D  C$Bestiary.c$140$2_0$152           Bestiary
     000039A0  A$Bestiary$536                     Bestiary
     000039A1  A$Bestiary$537                     Bestiary
     000039A4  A$Bestiary$538                     Bestiary
     000039A5  A$Bestiary$539                     Bestiary
     000039A8  A$Bestiary$540                     Bestiary
     000039AA  A$Bestiary$544                     Bestiary
     000039AA  C$Bestiary.c$141$2_0$152           Bestiary
     000039AD  A$Bestiary$545                     Bestiary
     000039AE  A$Bestiary$546                     Bestiary
     000039B1  A$Bestiary$547                     Bestiary
     000039B2  A$Bestiary$548                     Bestiary
     000039B5  A$Bestiary$549                     Bestiary
     000039B6  A$Bestiary$550                     Bestiary
     000039B9  A$Bestiary$551                     Bestiary
     000039BB  A$Bestiary$555                     Bestiary
     000039BB  C$Bestiary.c$142$2_0$152           Bestiary
     000039BE  A$Bestiary$556                     Bestiary
     000039BF  A$Bestiary$557                     Bestiary
     000039C2  A$Bestiary$558                     Bestiary
     000039C3  A$Bestiary$559                     Bestiary
     000039C5  A$Bestiary$560                     Bestiary
     000039C7  A$Bestiary$561                     Bestiary
     000039CA  A$Bestiary$565                     Bestiary
     000039CA  C$Bestiary.c$144$2_0$152           Bestiary
     000039CD  A$Bestiary$566                     Bestiary
     000039CE  A$Bestiary$567                     Bestiary
     000039D1  A$Bestiary$568                     Bestiary
     000039D2  A$Bestiary$569                     Bestiary
     000039D4  A$Bestiary$570                     Bestiary
     000039D6  A$Bestiary$571                     Bestiary
     000039D9  A$Bestiary$575                     Bestiary
     000039D9  C$Bestiary.c$145$2_0$152           Bestiary
     000039DC  A$Bestiary$576                     Bestiary
     000039DD  A$Bestiary$577                     Bestiary
     000039E0  A$Bestiary$578                     Bestiary
     000039E1  A$Bestiary$579                     Bestiary
     000039E3  A$Bestiary$580                     Bestiary
     000039E5  A$Bestiary$581                     Bestiary
     000039E8  A$Bestiary$585                     Bestiary
     000039E8  C$Bestiary.c$146$2_0$152           Bestiary
     000039EB  A$Bestiary$586                     Bestiary
     000039EC  A$Bestiary$587                     Bestiary
ASxxxx Linker V03.00/V05.40 + sdld,  page 64.
Hexadecimal  [32-Bits]

Area                                    Addr        Size        Decimal Bytes (Attributes)
--------------------------------        ----        ----        ------- ----- ------------
_CODE                               00000200    0000601F =       24607. bytes (REL,CON)

      Value  Global                              Global Defined In Module
      -----  --------------------------------   ------------------------
     000039EF  A$Bestiary$588                     Bestiary
     000039F0  A$Bestiary$589                     Bestiary
     000039F2  A$Bestiary$590                     Bestiary
     000039F4  A$Bestiary$591                     Bestiary
     000039F7  A$Bestiary$595                     Bestiary
     000039F7  C$Bestiary.c$147$2_0$152           Bestiary
     000039FA  A$Bestiary$596                     Bestiary
     000039FB  A$Bestiary$597                     Bestiary
     000039FE  A$Bestiary$598                     Bestiary
     000039FF  A$Bestiary$599                     Bestiary
     00003A01  A$Bestiary$600                     Bestiary
     00003A03  A$Bestiary$601                     Bestiary
     00003A06  A$Bestiary$605                     Bestiary
     00003A06  C$Bestiary.c$148$2_0$152           Bestiary
     00003A09  A$Bestiary$606                     Bestiary
     00003A0A  A$Bestiary$607                     Bestiary
     00003A0D  A$Bestiary$608                     Bestiary
     00003A0E  A$Bestiary$609                     Bestiary
     00003A10  A$Bestiary$610                     Bestiary
     00003A12  A$Bestiary$611                     Bestiary
     00003A15  A$Bestiary$615                     Bestiary
     00003A15  C$Bestiary.c$149$2_0$152           Bestiary
     00003A17  A$Bestiary$616                     Bestiary
     00003A18  A$Bestiary$617                     Bestiary
     00003A19  A$Bestiary$618                     Bestiary
     00003A1C  A$Bestiary$619                     Bestiary
     00003A1D  A$Bestiary$620                     Bestiary
     00003A1F  A$Bestiary$621                     Bestiary
     00003A21  A$Bestiary$622                     Bestiary
     00003A24  A$Bestiary$626                     Bestiary
     00003A24  C$Bestiary.c$150$2_0$152           Bestiary
     00003A26  A$Bestiary$627                     Bestiary
     00003A27  A$Bestiary$628                     Bestiary
     00003A28  A$Bestiary$629                     Bestiary
     00003A2B  A$Bestiary$630                     Bestiary
     00003A2C  A$Bestiary$631                     Bestiary
     00003A2E  A$Bestiary$632                     Bestiary
     00003A30  A$Bestiary$633                     Bestiary
     00003A33  A$Bestiary$637                     Bestiary
     00003A33  C$Bestiary.c$151$2_0$152           Bestiary
     00003A35  A$Bestiary$638                     Bestiary
     00003A36  A$Bestiary$639                     Bestiary
     00003A37  A$Bestiary$640                     Bestiary
     00003A3A  A$Bestiary$641                     Bestiary
     00003A3B  A$Bestiary$642                     Bestiary
     00003A3D  A$Bestiary$643                     Bestiary
     00003A3F  A$Bestiary$644                     Bestiary
     00003A42  A$Bestiary$648                     Bestiary
     00003A42  C$Bestiary.c$152$2_0$152           Bestiary
     00003A44  A$Bestiary$649                     Bestiary
     00003A45  A$Bestiary$650                     Bestiary
ASxxxx Linker V03.00/V05.40 + sdld,  page 65.
Hexadecimal  [32-Bits]

Area                                    Addr        Size        Decimal Bytes (Attributes)
--------------------------------        ----        ----        ------- ----- ------------
_CODE                               00000200    0000601F =       24607. bytes (REL,CON)

      Value  Global                              Global Defined In Module
      -----  --------------------------------   ------------------------
     00003A46  A$Bestiary$651                     Bestiary
     00003A49  A$Bestiary$652                     Bestiary
     00003A4A  A$Bestiary$653                     Bestiary
     00003A4C  A$Bestiary$654                     Bestiary
     00003A4E  A$Bestiary$655                     Bestiary
     00003A51  A$Bestiary$656                     Bestiary
     00003A54  A$Bestiary$661                     Bestiary
     00003A54  C$Bestiary.c$154$1_0$142           Bestiary
     00003A57  A$Bestiary$662                     Bestiary
     00003A59  A$Bestiary$663                     Bestiary
     00003A5C  A$Bestiary$667                     Bestiary
     00003A5C  C$Bestiary.c$156$2_0$153           Bestiary
     00003A5F  A$Bestiary$668                     Bestiary
     00003A60  A$Bestiary$669                     Bestiary
     00003A63  A$Bestiary$670                     Bestiary
     00003A64  A$Bestiary$671                     Bestiary
     00003A67  A$Bestiary$672                     Bestiary
     00003A69  A$Bestiary$676                     Bestiary
     00003A69  C$Bestiary.c$157$2_0$153           Bestiary
     00003A6C  A$Bestiary$677                     Bestiary
     00003A6D  A$Bestiary$678                     Bestiary
     00003A70  A$Bestiary$679                     Bestiary
     00003A71  A$Bestiary$680                     Bestiary
     00003A74  A$Bestiary$681                     Bestiary
     00003A75  A$Bestiary$682                     Bestiary
     00003A78  A$Bestiary$683                     Bestiary
     00003A7A  A$Bestiary$687                     Bestiary
     00003A7A  C$Bestiary.c$158$2_0$153           Bestiary
     00003A7D  A$Bestiary$688                     Bestiary
     00003A7E  A$Bestiary$689                     Bestiary
     00003A81  A$Bestiary$690                     Bestiary
     00003A82  A$Bestiary$691                     Bestiary
     00003A84  A$Bestiary$692                     Bestiary
     00003A86  A$Bestiary$693                     Bestiary
     00003A89  A$Bestiary$697                     Bestiary
     00003A89  C$Bestiary.c$160$2_0$153           Bestiary
     00003A8C  A$Bestiary$698                     Bestiary
     00003A8D  A$Bestiary$699                     Bestiary
     00003A90  A$Bestiary$700                     Bestiary
     00003A91  A$Bestiary$701                     Bestiary
     00003A93  A$Bestiary$702                     Bestiary
     00003A95  A$Bestiary$703                     Bestiary
     00003A98  A$Bestiary$707                     Bestiary
     00003A98  C$Bestiary.c$161$2_0$153           Bestiary
     00003A9B  A$Bestiary$708                     Bestiary
     00003A9C  A$Bestiary$709                     Bestiary
     00003A9F  A$Bestiary$710                     Bestiary
     00003AA0  A$Bestiary$711                     Bestiary
     00003AA2  A$Bestiary$712                     Bestiary
     00003AA4  A$Bestiary$713                     Bestiary
     00003AA7  A$Bestiary$717                     Bestiary
ASxxxx Linker V03.00/V05.40 + sdld,  page 66.
Hexadecimal  [32-Bits]

Area                                    Addr        Size        Decimal Bytes (Attributes)
--------------------------------        ----        ----        ------- ----- ------------
_CODE                               00000200    0000601F =       24607. bytes (REL,CON)

      Value  Global                              Global Defined In Module
      -----  --------------------------------   ------------------------
     00003AA7  C$Bestiary.c$162$2_0$153           Bestiary
     00003AAA  A$Bestiary$718                     Bestiary
     00003AAB  A$Bestiary$719                     Bestiary
     00003AAE  A$Bestiary$720                     Bestiary
     00003AAF  A$Bestiary$721                     Bestiary
     00003AB1  A$Bestiary$722                     Bestiary
     00003AB3  A$Bestiary$723                     Bestiary
     00003AB6  A$Bestiary$727                     Bestiary
     00003AB6  C$Bestiary.c$163$2_0$153           Bestiary
     00003AB9  A$Bestiary$728                     Bestiary
     00003ABA  A$Bestiary$729                     Bestiary
     00003ABD  A$Bestiary$730                     Bestiary
     00003ABE  A$Bestiary$731                     Bestiary
     00003AC0  A$Bestiary$732                     Bestiary
     00003AC2  A$Bestiary$733                     Bestiary
     00003AC5  A$Bestiary$737                     Bestiary
     00003AC5  C$Bestiary.c$164$2_0$153           Bestiary
     00003AC8  A$Bestiary$738                     Bestiary
     00003AC9  A$Bestiary$739                     Bestiary
     00003ACC  A$Bestiary$740                     Bestiary
     00003ACD  A$Bestiary$741                     Bestiary
     00003ACF  A$Bestiary$742                     Bestiary
     00003AD1  A$Bestiary$743                     Bestiary
     00003AD4  A$Bestiary$747                     Bestiary
     00003AD4  C$Bestiary.c$165$2_0$153           Bestiary
     00003AD6  A$Bestiary$748                     Bestiary
     00003AD7  A$Bestiary$749                     Bestiary
     00003AD8  A$Bestiary$750                     Bestiary
     00003ADB  A$Bestiary$751                     Bestiary
     00003ADC  A$Bestiary$752                     Bestiary
     00003ADE  A$Bestiary$753                     Bestiary
     00003AE0  A$Bestiary$754                     Bestiary
     00003AE3  A$Bestiary$758                     Bestiary
     00003AE3  C$Bestiary.c$166$2_0$153           Bestiary
     00003AE5  A$Bestiary$759                     Bestiary
     00003AE6  A$Bestiary$760                     Bestiary
     00003AE7  A$Bestiary$761                     Bestiary
     00003AEA  A$Bestiary$762                     Bestiary
     00003AEB  A$Bestiary$763                     Bestiary
     00003AED  A$Bestiary$764                     Bestiary
     00003AEF  A$Bestiary$765                     Bestiary
     00003AF2  A$Bestiary$769                     Bestiary
     00003AF2  C$Bestiary.c$167$2_0$153           Bestiary
     00003AF4  A$Bestiary$770                     Bestiary
     00003AF5  A$Bestiary$771                     Bestiary
     00003AF6  A$Bestiary$772                     Bestiary
     00003AF9  A$Bestiary$773                     Bestiary
     00003AFA  A$Bestiary$774                     Bestiary
     00003AFC  A$Bestiary$775                     Bestiary
     00003AFE  A$Bestiary$776                     Bestiary
     00003B01  A$Bestiary$780                     Bestiary
ASxxxx Linker V03.00/V05.40 + sdld,  page 67.
Hexadecimal  [32-Bits]

Area                                    Addr        Size        Decimal Bytes (Attributes)
--------------------------------        ----        ----        ------- ----- ------------
_CODE                               00000200    0000601F =       24607. bytes (REL,CON)

      Value  Global                              Global Defined In Module
      -----  --------------------------------   ------------------------
     00003B01  C$Bestiary.c$168$2_0$153           Bestiary
     00003B03  A$Bestiary$781                     Bestiary
     00003B04  A$Bestiary$782                     Bestiary
     00003B05  A$Bestiary$783                     Bestiary
     00003B08  A$Bestiary$784                     Bestiary
     00003B09  A$Bestiary$785                     Bestiary
     00003B0B  A$Bestiary$786                     Bestiary
     00003B0D  A$Bestiary$787                     Bestiary
     00003B10  A$Bestiary$788                     Bestiary
     00003B13  A$Bestiary$793                     Bestiary
     00003B13  C$Bestiary.c$170$1_0$142           Bestiary
     00003B16  A$Bestiary$794                     Bestiary
     00003B18  A$Bestiary$795                     Bestiary
     00003B1B  A$Bestiary$799                     Bestiary
     00003B1B  C$Bestiary.c$172$2_0$154           Bestiary
     00003B1E  A$Bestiary$800                     Bestiary
     00003B1F  A$Bestiary$801                     Bestiary
     00003B22  A$Bestiary$802                     Bestiary
     00003B23  A$Bestiary$803                     Bestiary
     00003B26  A$Bestiary$804                     Bestiary
     00003B28  A$Bestiary$808                     Bestiary
     00003B28  C$Bestiary.c$173$2_0$154           Bestiary
     00003B2B  A$Bestiary$809                     Bestiary
     00003B2C  A$Bestiary$810                     Bestiary
     00003B2F  A$Bestiary$811                     Bestiary
     00003B30  A$Bestiary$812                     Bestiary
     00003B33  A$Bestiary$813                     Bestiary
     00003B34  A$Bestiary$814                     Bestiary
     00003B37  A$Bestiary$815                     Bestiary
     00003B39  A$Bestiary$819                     Bestiary
     00003B39  C$Bestiary.c$174$2_0$154           Bestiary
     00003B3C  A$Bestiary$820                     Bestiary
     00003B3D  A$Bestiary$821                     Bestiary
     00003B40  A$Bestiary$822                     Bestiary
     00003B41  A$Bestiary$823                     Bestiary
     00003B43  A$Bestiary$824                     Bestiary
     00003B45  A$Bestiary$825                     Bestiary
     00003B48  A$Bestiary$829                     Bestiary
     00003B48  C$Bestiary.c$176$2_0$154           Bestiary
     00003B4B  A$Bestiary$830                     Bestiary
     00003B4C  A$Bestiary$831                     Bestiary
     00003B4F  A$Bestiary$832                     Bestiary
     00003B50  A$Bestiary$833                     Bestiary
     00003B52  A$Bestiary$834                     Bestiary
     00003B54  A$Bestiary$835                     Bestiary
     00003B57  A$Bestiary$839                     Bestiary
     00003B57  C$Bestiary.c$177$2_0$154           Bestiary
     00003B5A  A$Bestiary$840                     Bestiary
     00003B5B  A$Bestiary$841                     Bestiary
     00003B5E  A$Bestiary$842                     Bestiary
     00003B5F  A$Bestiary$843                     Bestiary
ASxxxx Linker V03.00/V05.40 + sdld,  page 68.
Hexadecimal  [32-Bits]

Area                                    Addr        Size        Decimal Bytes (Attributes)
--------------------------------        ----        ----        ------- ----- ------------
_CODE                               00000200    0000601F =       24607. bytes (REL,CON)

      Value  Global                              Global Defined In Module
      -----  --------------------------------   ------------------------
     00003B61  A$Bestiary$844                     Bestiary
     00003B63  A$Bestiary$845                     Bestiary
     00003B66  A$Bestiary$849                     Bestiary
     00003B66  C$Bestiary.c$178$2_0$154           Bestiary
     00003B69  A$Bestiary$850                     Bestiary
     00003B6A  A$Bestiary$851                     Bestiary
     00003B6D  A$Bestiary$852                     Bestiary
     00003B6E  A$Bestiary$853                     Bestiary
     00003B70  A$Bestiary$854                     Bestiary
     00003B72  A$Bestiary$855                     Bestiary
     00003B75  A$Bestiary$859                     Bestiary
     00003B75  C$Bestiary.c$179$2_0$154           Bestiary
     00003B78  A$Bestiary$860                     Bestiary
     00003B79  A$Bestiary$861                     Bestiary
     00003B7C  A$Bestiary$862                     Bestiary
     00003B7D  A$Bestiary$863                     Bestiary
     00003B7F  A$Bestiary$864                     Bestiary
     00003B81  A$Bestiary$865                     Bestiary
     00003B84  A$Bestiary$869                     Bestiary
     00003B84  C$Bestiary.c$180$2_0$154           Bestiary
     00003B87  A$Bestiary$870                     Bestiary
     00003B88  A$Bestiary$871                     Bestiary
     00003B8B  A$Bestiary$872                     Bestiary
     00003B8C  A$Bestiary$873                     Bestiary
     00003B8E  A$Bestiary$874                     Bestiary
     00003B90  A$Bestiary$875                     Bestiary
     00003B93  A$Bestiary$879                     Bestiary
     00003B93  C$Bestiary.c$181$2_0$154           Bestiary
     00003B95  A$Bestiary$880                     Bestiary
     00003B96  A$Bestiary$881                     Bestiary
     00003B97  A$Bestiary$882                     Bestiary
     00003B9A  A$Bestiary$883                     Bestiary
     00003B9B  A$Bestiary$884                     Bestiary
     00003B9D  A$Bestiary$885                     Bestiary
     00003B9F  A$Bestiary$886                     Bestiary
     00003BA2  A$Bestiary$890                     Bestiary
     00003BA2  C$Bestiary.c$182$2_0$154           Bestiary
     00003BA4  A$Bestiary$891                     Bestiary
     00003BA5  A$Bestiary$892                     Bestiary
     00003BA6  A$Bestiary$893                     Bestiary
     00003BA9  A$Bestiary$894                     Bestiary
     00003BAA  A$Bestiary$895                     Bestiary
     00003BAC  A$Bestiary$896                     Bestiary
     00003BAE  A$Bestiary$897                     Bestiary
     00003BB1  A$Bestiary$901                     Bestiary
     00003BB1  C$Bestiary.c$183$2_0$154           Bestiary
     00003BB3  A$Bestiary$902                     Bestiary
     00003BB4  A$Bestiary$903                     Bestiary
     00003BB5  A$Bestiary$904                     Bestiary
     00003BB8  A$Bestiary$905                     Bestiary
     00003BB9  A$Bestiary$906                     Bestiary
ASxxxx Linker V03.00/V05.40 + sdld,  page 69.
Hexadecimal  [32-Bits]

Area                                    Addr        Size        Decimal Bytes (Attributes)
--------------------------------        ----        ----        ------- ----- ------------
_CODE                               00000200    0000601F =       24607. bytes (REL,CON)

      Value  Global                              Global Defined In Module
      -----  --------------------------------   ------------------------
     00003BBB  A$Bestiary$907                     Bestiary
     00003BBD  A$Bestiary$908                     Bestiary
     00003BC0  A$Bestiary$912                     Bestiary
     00003BC0  C$Bestiary.c$184$2_0$154           Bestiary
     00003BC2  A$Bestiary$913                     Bestiary
     00003BC3  A$Bestiary$914                     Bestiary
     00003BC4  A$Bestiary$915                     Bestiary
     00003BC7  A$Bestiary$916                     Bestiary
     00003BC8  A$Bestiary$917                     Bestiary
     00003BCA  A$Bestiary$918                     Bestiary
     00003BCC  A$Bestiary$919                     Bestiary
     00003BCF  A$Bestiary$920                     Bestiary
     00003BD2  A$Bestiary$925                     Bestiary
     00003BD2  C$Bestiary.c$186$1_0$142           Bestiary
     00003BD5  A$Bestiary$926                     Bestiary
     00003BD7  A$Bestiary$927                     Bestiary
     00003BDA  A$Bestiary$931                     Bestiary
     00003BDA  C$Bestiary.c$188$2_0$155           Bestiary
     00003BDD  A$Bestiary$932                     Bestiary
     00003BDE  A$Bestiary$933                     Bestiary
     00003BE1  A$Bestiary$934                     Bestiary
     00003BE2  A$Bestiary$935                     Bestiary
     00003BE5  A$Bestiary$936                     Bestiary
     00003BE7  A$Bestiary$940                     Bestiary
     00003BE7  C$Bestiary.c$189$2_0$155           Bestiary
     00003BEA  A$Bestiary$941                     Bestiary
     00003BEB  A$Bestiary$942                     Bestiary
     00003BEE  A$Bestiary$943                     Bestiary
     00003BEF  A$Bestiary$944                     Bestiary
     00003BF2  A$Bestiary$945                     Bestiary
     00003BF3  A$Bestiary$946                     Bestiary
     00003BF6  A$Bestiary$947                     Bestiary
     00003BF8  A$Bestiary$951                     Bestiary
     00003BF8  C$Bestiary.c$190$2_0$155           Bestiary
     00003BFB  A$Bestiary$952                     Bestiary
     00003BFC  A$Bestiary$953                     Bestiary
     00003BFF  A$Bestiary$954                     Bestiary
     00003C00  A$Bestiary$955                     Bestiary
     00003C02  A$Bestiary$956                     Bestiary
     00003C04  A$Bestiary$957                     Bestiary
     00003C07  A$Bestiary$961                     Bestiary
     00003C07  C$Bestiary.c$192$2_0$155           Bestiary
     00003C0A  A$Bestiary$962                     Bestiary
     00003C0B  A$Bestiary$963                     Bestiary
     00003C0E  A$Bestiary$964                     Bestiary
     00003C0F  A$Bestiary$965                     Bestiary
     00003C11  A$Bestiary$966                     Bestiary
     00003C13  A$Bestiary$967                     Bestiary
     00003C16  A$Bestiary$971                     Bestiary
     00003C16  C$Bestiary.c$193$2_0$155           Bestiary
     00003C19  A$Bestiary$972                     Bestiary
ASxxxx Linker V03.00/V05.40 + sdld,  page 70.
Hexadecimal  [32-Bits]

Area                                    Addr        Size        Decimal Bytes (Attributes)
--------------------------------        ----        ----        ------- ----- ------------
_CODE                               00000200    0000601F =       24607. bytes (REL,CON)

      Value  Global                              Global Defined In Module
      -----  --------------------------------   ------------------------
     00003C1A  A$Bestiary$973                     Bestiary
     00003C1D  A$Bestiary$974                     Bestiary
     00003C1E  A$Bestiary$975                     Bestiary
     00003C20  A$Bestiary$976                     Bestiary
     00003C22  A$Bestiary$977                     Bestiary
     00003C25  A$Bestiary$981                     Bestiary
     00003C25  C$Bestiary.c$194$2_0$155           Bestiary
     00003C28  A$Bestiary$982                     Bestiary
     00003C29  A$Bestiary$983                     Bestiary
     00003C2C  A$Bestiary$984                     Bestiary
     00003C2D  A$Bestiary$985                     Bestiary
     00003C2F  A$Bestiary$986                     Bestiary
     00003C31  A$Bestiary$987                     Bestiary
     00003C34  A$Bestiary$991                     Bestiary
     00003C34  C$Bestiary.c$195$2_0$155           Bestiary
     00003C37  A$Bestiary$992                     Bestiary
     00003C38  A$Bestiary$993                     Bestiary
     00003C3B  A$Bestiary$994                     Bestiary
     00003C3C  A$Bestiary$995                     Bestiary
     00003C3E  A$Bestiary$996                     Bestiary
     00003C40  A$Bestiary$997                     Bestiary
     00003C43  A$Bestiary$1001                    Bestiary
     00003C43  C$Bestiary.c$196$2_0$155           Bestiary
     00003C46  A$Bestiary$1002                    Bestiary
     00003C47  A$Bestiary$1003                    Bestiary
     00003C4A  A$Bestiary$1004                    Bestiary
     00003C4B  A$Bestiary$1005                    Bestiary
     00003C4D  A$Bestiary$1006                    Bestiary
     00003C4F  A$Bestiary$1007                    Bestiary
     00003C52  A$Bestiary$1011                    Bestiary
     00003C52  C$Bestiary.c$197$2_0$155           Bestiary
     00003C54  A$Bestiary$1012                    Bestiary
     00003C55  A$Bestiary$1013                    Bestiary
     00003C56  A$Bestiary$1014                    Bestiary
     00003C59  A$Bestiary$1015                    Bestiary
     00003C5A  A$Bestiary$1016                    Bestiary
     00003C5C  A$Bestiary$1017                    Bestiary
     00003C5E  A$Bestiary$1018                    Bestiary
     00003C61  A$Bestiary$1022                    Bestiary
     00003C61  C$Bestiary.c$198$2_0$155           Bestiary
     00003C63  A$Bestiary$1023                    Bestiary
     00003C64  A$Bestiary$1024                    Bestiary
     00003C65  A$Bestiary$1025                    Bestiary
     00003C68  A$Bestiary$1026                    Bestiary
     00003C69  A$Bestiary$1027                    Bestiary
     00003C6B  A$Bestiary$1028                    Bestiary
     00003C6D  A$Bestiary$1029                    Bestiary
     00003C70  A$Bestiary$1033                    Bestiary
     00003C70  C$Bestiary.c$199$2_0$155           Bestiary
     00003C72  A$Bestiary$1034                    Bestiary
     00003C73  A$Bestiary$1035                    Bestiary
ASxxxx Linker V03.00/V05.40 + sdld,  page 71.
Hexadecimal  [32-Bits]

Area                                    Addr        Size        Decimal Bytes (Attributes)
--------------------------------        ----        ----        ------- ----- ------------
_CODE                               00000200    0000601F =       24607. bytes (REL,CON)

      Value  Global                              Global Defined In Module
      -----  --------------------------------   ------------------------
     00003C74  A$Bestiary$1036                    Bestiary
     00003C77  A$Bestiary$1037                    Bestiary
     00003C78  A$Bestiary$1038                    Bestiary
     00003C7A  A$Bestiary$1039                    Bestiary
     00003C7C  A$Bestiary$1040                    Bestiary
     00003C7F  A$Bestiary$1044                    Bestiary
     00003C7F  C$Bestiary.c$200$2_0$155           Bestiary
     00003C81  A$Bestiary$1045                    Bestiary
     00003C82  A$Bestiary$1046                    Bestiary
     00003C83  A$Bestiary$1047                    Bestiary
     00003C86  A$Bestiary$1048                    Bestiary
     00003C87  A$Bestiary$1049                    Bestiary
     00003C89  A$Bestiary$1050                    Bestiary
     00003C8B  A$Bestiary$1051                    Bestiary
     00003C8E  A$Bestiary$1052                    Bestiary
     00003C91  A$Bestiary$1057                    Bestiary
     00003C91  C$Bestiary.c$202$1_0$142           Bestiary
     00003C94  A$Bestiary$1058                    Bestiary
     00003C96  A$Bestiary$1059                    Bestiary
     00003C99  A$Bestiary$1063                    Bestiary
     00003C99  C$Bestiary.c$204$2_0$156           Bestiary
     00003C9C  A$Bestiary$1064                    Bestiary
     00003C9D  A$Bestiary$1065                    Bestiary
     00003CA0  A$Bestiary$1066                    Bestiary
     00003CA1  A$Bestiary$1067                    Bestiary
     00003CA4  A$Bestiary$1068                    Bestiary
     00003CA6  A$Bestiary$1072                    Bestiary
     00003CA6  C$Bestiary.c$205$2_0$156           Bestiary
     00003CA9  A$Bestiary$1073                    Bestiary
     00003CAA  A$Bestiary$1074                    Bestiary
     00003CAD  A$Bestiary$1075                    Bestiary
     00003CAE  A$Bestiary$1076                    Bestiary
     00003CB1  A$Bestiary$1077                    Bestiary
     00003CB2  A$Bestiary$1078                    Bestiary
     00003CB5  A$Bestiary$1079                    Bestiary
     00003CB7  A$Bestiary$1083                    Bestiary
     00003CB7  C$Bestiary.c$206$2_0$156           Bestiary
     00003CBA  A$Bestiary$1084                    Bestiary
     00003CBB  A$Bestiary$1085                    Bestiary
     00003CBE  A$Bestiary$1086                    Bestiary
     00003CBF  A$Bestiary$1087                    Bestiary
     00003CC1  A$Bestiary$1088                    Bestiary
     00003CC3  A$Bestiary$1089                    Bestiary
     00003CC6  A$Bestiary$1093                    Bestiary
     00003CC6  C$Bestiary.c$208$2_0$156           Bestiary
     00003CC9  A$Bestiary$1094                    Bestiary
     00003CCA  A$Bestiary$1095                    Bestiary
     00003CCD  A$Bestiary$1096                    Bestiary
     00003CCE  A$Bestiary$1097                    Bestiary
     00003CD0  A$Bestiary$1098                    Bestiary
     00003CD2  A$Bestiary$1099                    Bestiary
ASxxxx Linker V03.00/V05.40 + sdld,  page 72.
Hexadecimal  [32-Bits]

Area                                    Addr        Size        Decimal Bytes (Attributes)
--------------------------------        ----        ----        ------- ----- ------------
_CODE                               00000200    0000601F =       24607. bytes (REL,CON)

      Value  Global                              Global Defined In Module
      -----  --------------------------------   ------------------------
     00003CD5  A$Bestiary$1103                    Bestiary
     00003CD5  C$Bestiary.c$209$2_0$156           Bestiary
     00003CD8  A$Bestiary$1104                    Bestiary
     00003CD9  A$Bestiary$1105                    Bestiary
     00003CDC  A$Bestiary$1106                    Bestiary
     00003CDD  A$Bestiary$1107                    Bestiary
     00003CDF  A$Bestiary$1108                    Bestiary
     00003CE1  A$Bestiary$1109                    Bestiary
     00003CE4  A$Bestiary$1113                    Bestiary
     00003CE4  C$Bestiary.c$210$2_0$156           Bestiary
     00003CE7  A$Bestiary$1114                    Bestiary
     00003CE8  A$Bestiary$1115                    Bestiary
     00003CEB  A$Bestiary$1116                    Bestiary
     00003CEC  A$Bestiary$1117                    Bestiary
     00003CEE  A$Bestiary$1118                    Bestiary
     00003CF0  A$Bestiary$1119                    Bestiary
     00003CF3  A$Bestiary$1123                    Bestiary
     00003CF3  C$Bestiary.c$211$2_0$156           Bestiary
     00003CF6  A$Bestiary$1124                    Bestiary
     00003CF7  A$Bestiary$1125                    Bestiary
     00003CFA  A$Bestiary$1126                    Bestiary
     00003CFB  A$Bestiary$1127                    Bestiary
     00003CFD  A$Bestiary$1128                    Bestiary
     00003CFF  A$Bestiary$1129                    Bestiary
     00003D02  A$Bestiary$1133                    Bestiary
     00003D02  C$Bestiary.c$212$2_0$156           Bestiary
     00003D05  A$Bestiary$1134                    Bestiary
     00003D06  A$Bestiary$1135                    Bestiary
     00003D09  A$Bestiary$1136                    Bestiary
     00003D0A  A$Bestiary$1137                    Bestiary
     00003D0C  A$Bestiary$1138                    Bestiary
     00003D0E  A$Bestiary$1139                    Bestiary
     00003D11  A$Bestiary$1143                    Bestiary
     00003D11  C$Bestiary.c$213$2_0$156           Bestiary
     00003D13  A$Bestiary$1144                    Bestiary
     00003D14  A$Bestiary$1145                    Bestiary
     00003D15  A$Bestiary$1146                    Bestiary
     00003D18  A$Bestiary$1147                    Bestiary
     00003D19  A$Bestiary$1148                    Bestiary
     00003D1B  A$Bestiary$1149                    Bestiary
     00003D1D  A$Bestiary$1150                    Bestiary
     00003D20  A$Bestiary$1154                    Bestiary
     00003D20  C$Bestiary.c$214$2_0$156           Bestiary
     00003D22  A$Bestiary$1155                    Bestiary
     00003D23  A$Bestiary$1156                    Bestiary
     00003D24  A$Bestiary$1157                    Bestiary
     00003D27  A$Bestiary$1158                    Bestiary
     00003D28  A$Bestiary$1159                    Bestiary
     00003D2A  A$Bestiary$1160                    Bestiary
     00003D2C  A$Bestiary$1161                    Bestiary
     00003D2F  A$Bestiary$1165                    Bestiary
ASxxxx Linker V03.00/V05.40 + sdld,  page 73.
Hexadecimal  [32-Bits]

Area                                    Addr        Size        Decimal Bytes (Attributes)
--------------------------------        ----        ----        ------- ----- ------------
_CODE                               00000200    0000601F =       24607. bytes (REL,CON)

      Value  Global                              Global Defined In Module
      -----  --------------------------------   ------------------------
     00003D2F  C$Bestiary.c$215$2_0$156           Bestiary
     00003D31  A$Bestiary$1166                    Bestiary
     00003D32  A$Bestiary$1167                    Bestiary
     00003D33  A$Bestiary$1168                    Bestiary
     00003D36  A$Bestiary$1169                    Bestiary
     00003D37  A$Bestiary$1170                    Bestiary
     00003D39  A$Bestiary$1171                    Bestiary
     00003D3B  A$Bestiary$1172                    Bestiary
     00003D3E  A$Bestiary$1173                    Bestiary
     00003D41  A$Bestiary$1178                    Bestiary
     00003D41  C$Bestiary.c$217$1_0$142           Bestiary
     00003D44  A$Bestiary$1179                    Bestiary
     00003D46  A$Bestiary$1180                    Bestiary
     00003D49  A$Bestiary$1184                    Bestiary
     00003D49  C$Bestiary.c$219$2_0$157           Bestiary
     00003D4C  A$Bestiary$1185                    Bestiary
     00003D4D  A$Bestiary$1186                    Bestiary
     00003D50  A$Bestiary$1187                    Bestiary
     00003D51  A$Bestiary$1188                    Bestiary
     00003D54  A$Bestiary$1189                    Bestiary
     00003D56  A$Bestiary$1193                    Bestiary
     00003D56  C$Bestiary.c$220$2_0$157           Bestiary
     00003D59  A$Bestiary$1194                    Bestiary
     00003D5A  A$Bestiary$1195                    Bestiary
     00003D5D  A$Bestiary$1196                    Bestiary
     00003D5E  A$Bestiary$1197                    Bestiary
     00003D61  A$Bestiary$1198                    Bestiary
     00003D62  A$Bestiary$1199                    Bestiary
     00003D65  A$Bestiary$1200                    Bestiary
     00003D67  A$Bestiary$1204                    Bestiary
     00003D67  C$Bestiary.c$221$2_0$157           Bestiary
     00003D6A  A$Bestiary$1205                    Bestiary
     00003D6B  A$Bestiary$1206                    Bestiary
     00003D6E  A$Bestiary$1207                    Bestiary
     00003D6F  A$Bestiary$1208                    Bestiary
     00003D71  A$Bestiary$1209                    Bestiary
     00003D73  A$Bestiary$1210                    Bestiary
     00003D76  A$Bestiary$1214                    Bestiary
     00003D76  C$Bestiary.c$223$2_0$157           Bestiary
     00003D79  A$Bestiary$1215                    Bestiary
     00003D7A  A$Bestiary$1216                    Bestiary
     00003D7D  A$Bestiary$1217                    Bestiary
     00003D7E  A$Bestiary$1218                    Bestiary
     00003D80  A$Bestiary$1219                    Bestiary
     00003D82  A$Bestiary$1220                    Bestiary
     00003D85  A$Bestiary$1224                    Bestiary
     00003D85  C$Bestiary.c$224$2_0$157           Bestiary
     00003D88  A$Bestiary$1225                    Bestiary
     00003D89  A$Bestiary$1226                    Bestiary
     00003D8C  A$Bestiary$1227                    Bestiary
     00003D8D  A$Bestiary$1228                    Bestiary
ASxxxx Linker V03.00/V05.40 + sdld,  page 74.
Hexadecimal  [32-Bits]

Area                                    Addr        Size        Decimal Bytes (Attributes)
--------------------------------        ----        ----        ------- ----- ------------
_CODE                               00000200    0000601F =       24607. bytes (REL,CON)

      Value  Global                              Global Defined In Module
      -----  --------------------------------   ------------------------
     00003D8F  A$Bestiary$1229                    Bestiary
     00003D91  A$Bestiary$1230                    Bestiary
     00003D94  A$Bestiary$1234                    Bestiary
     00003D94  C$Bestiary.c$225$2_0$157           Bestiary
     00003D97  A$Bestiary$1235                    Bestiary
     00003D98  A$Bestiary$1236                    Bestiary
     00003D9B  A$Bestiary$1237                    Bestiary
     00003D9C  A$Bestiary$1238                    Bestiary
     00003D9E  A$Bestiary$1239                    Bestiary
     00003DA0  A$Bestiary$1240                    Bestiary
     00003DA3  A$Bestiary$1244                    Bestiary
     00003DA3  C$Bestiary.c$226$2_0$157           Bestiary
     00003DA6  A$Bestiary$1245                    Bestiary
     00003DA7  A$Bestiary$1246                    Bestiary
     00003DAA  A$Bestiary$1247                    Bestiary
     00003DAB  A$Bestiary$1248                    Bestiary
     00003DAD  A$Bestiary$1249                    Bestiary
     00003DAF  A$Bestiary$1250                    Bestiary
     00003DB2  A$Bestiary$1254                    Bestiary
     00003DB2  C$Bestiary.c$227$2_0$157           Bestiary
     00003DB5  A$Bestiary$1255                    Bestiary
     00003DB6  A$Bestiary$1256                    Bestiary
     00003DB9  A$Bestiary$1257                    Bestiary
     00003DBA  A$Bestiary$1258                    Bestiary
     00003DBC  A$Bestiary$1259                    Bestiary
     00003DBE  A$Bestiary$1260                    Bestiary
     00003DC1  A$Bestiary$1264                    Bestiary
     00003DC1  C$Bestiary.c$228$2_0$157           Bestiary
     00003DC3  A$Bestiary$1265                    Bestiary
     00003DC4  A$Bestiary$1266                    Bestiary
     00003DC5  A$Bestiary$1267                    Bestiary
     00003DC8  A$Bestiary$1268                    Bestiary
     00003DC9  A$Bestiary$1269                    Bestiary
     00003DCB  A$Bestiary$1270                    Bestiary
     00003DCD  A$Bestiary$1271                    Bestiary
     00003DD0  A$Bestiary$1275                    Bestiary
     00003DD0  C$Bestiary.c$229$2_0$157           Bestiary
     00003DD2  A$Bestiary$1276                    Bestiary
     00003DD3  A$Bestiary$1277                    Bestiary
     00003DD4  A$Bestiary$1278                    Bestiary
     00003DD7  A$Bestiary$1279                    Bestiary
     00003DD8  A$Bestiary$1280                    Bestiary
     00003DDA  A$Bestiary$1281                    Bestiary
     00003DDC  A$Bestiary$1282                    Bestiary
     00003DDF  A$Bestiary$1286                    Bestiary
     00003DDF  C$Bestiary.c$230$2_0$157           Bestiary
     00003DE1  A$Bestiary$1287                    Bestiary
     00003DE2  A$Bestiary$1288                    Bestiary
     00003DE3  A$Bestiary$1289                    Bestiary
     00003DE6  A$Bestiary$1290                    Bestiary
     00003DE7  A$Bestiary$1291                    Bestiary
ASxxxx Linker V03.00/V05.40 + sdld,  page 75.
Hexadecimal  [32-Bits]

Area                                    Addr        Size        Decimal Bytes (Attributes)
--------------------------------        ----        ----        ------- ----- ------------
_CODE                               00000200    0000601F =       24607. bytes (REL,CON)

      Value  Global                              Global Defined In Module
      -----  --------------------------------   ------------------------
     00003DE9  A$Bestiary$1292                    Bestiary
     00003DEB  A$Bestiary$1293                    Bestiary
     00003DEE  A$Bestiary$1297                    Bestiary
     00003DEE  C$Bestiary.c$231$2_0$157           Bestiary
     00003DF0  A$Bestiary$1298                    Bestiary
     00003DF1  A$Bestiary$1299                    Bestiary
     00003DF2  A$Bestiary$1300                    Bestiary
     00003DF5  A$Bestiary$1301                    Bestiary
     00003DF6  A$Bestiary$1302                    Bestiary
     00003DF8  A$Bestiary$1303                    Bestiary
     00003DFA  A$Bestiary$1304                    Bestiary
     00003DFD  A$Bestiary$1305                    Bestiary
     00003E00  A$Bestiary$1310                    Bestiary
     00003E00  C$Bestiary.c$233$1_0$142           Bestiary
     00003E03  A$Bestiary$1311                    Bestiary
     00003E05  A$Bestiary$1312                    Bestiary
     00003E08  A$Bestiary$1316                    Bestiary
     00003E08  C$Bestiary.c$235$2_0$158           Bestiary
     00003E0B  A$Bestiary$1317                    Bestiary
     00003E0C  A$Bestiary$1318                    Bestiary
     00003E0F  A$Bestiary$1319                    Bestiary
     00003E10  A$Bestiary$1320                    Bestiary
     00003E13  A$Bestiary$1321                    Bestiary
     00003E15  A$Bestiary$1325                    Bestiary
     00003E15  C$Bestiary.c$236$2_0$158           Bestiary
     00003E18  A$Bestiary$1326                    Bestiary
     00003E19  A$Bestiary$1327                    Bestiary
     00003E1C  A$Bestiary$1328                    Bestiary
     00003E1D  A$Bestiary$1329                    Bestiary
     00003E20  A$Bestiary$1330                    Bestiary
     00003E21  A$Bestiary$1331                    Bestiary
     00003E24  A$Bestiary$1332                    Bestiary
     00003E26  A$Bestiary$1336                    Bestiary
     00003E26  C$Bestiary.c$237$2_0$158           Bestiary
     00003E29  A$Bestiary$1337                    Bestiary
     00003E2A  A$Bestiary$1338                    Bestiary
     00003E2D  A$Bestiary$1339                    Bestiary
     00003E2E  A$Bestiary$1340                    Bestiary
     00003E30  A$Bestiary$1341                    Bestiary
     00003E32  A$Bestiary$1342                    Bestiary
     00003E35  A$Bestiary$1346                    Bestiary
     00003E35  C$Bestiary.c$239$2_0$158           Bestiary
     00003E38  A$Bestiary$1347                    Bestiary
     00003E39  A$Bestiary$1348                    Bestiary
     00003E3C  A$Bestiary$1349                    Bestiary
     00003E3D  A$Bestiary$1350                    Bestiary
     00003E3F  A$Bestiary$1351                    Bestiary
     00003E41  A$Bestiary$1352                    Bestiary
     00003E44  A$Bestiary$1356                    Bestiary
     00003E44  C$Bestiary.c$240$2_0$158           Bestiary
     00003E47  A$Bestiary$1357                    Bestiary
ASxxxx Linker V03.00/V05.40 + sdld,  page 76.
Hexadecimal  [32-Bits]

Area                                    Addr        Size        Decimal Bytes (Attributes)
--------------------------------        ----        ----        ------- ----- ------------
_CODE                               00000200    0000601F =       24607. bytes (REL,CON)

      Value  Global                              Global Defined In Module
      -----  --------------------------------   ------------------------
     00003E48  A$Bestiary$1358                    Bestiary
     00003E4B  A$Bestiary$1359                    Bestiary
     00003E4C  A$Bestiary$1360                    Bestiary
     00003E4E  A$Bestiary$1361                    Bestiary
     00003E50  A$Bestiary$1362                    Bestiary
     00003E53  A$Bestiary$1366                    Bestiary
     00003E53  C$Bestiary.c$241$2_0$158           Bestiary
     00003E56  A$Bestiary$1367                    Bestiary
     00003E57  A$Bestiary$1368                    Bestiary
     00003E5A  A$Bestiary$1369                    Bestiary
     00003E5B  A$Bestiary$1370                    Bestiary
     00003E5D  A$Bestiary$1371                    Bestiary
     00003E5F  A$Bestiary$1372                    Bestiary
     00003E62  A$Bestiary$1376                    Bestiary
     00003E62  C$Bestiary.c$242$2_0$158           Bestiary
     00003E65  A$Bestiary$1377                    Bestiary
     00003E66  A$Bestiary$1378                    Bestiary
     00003E69  A$Bestiary$1379                    Bestiary
     00003E6A  A$Bestiary$1380                    Bestiary
     00003E6C  A$Bestiary$1381                    Bestiary
     00003E6E  A$Bestiary$1382                    Bestiary
     00003E71  A$Bestiary$1386                    Bestiary
     00003E71  C$Bestiary.c$243$2_0$158           Bestiary
     00003E74  A$Bestiary$1387                    Bestiary
     00003E75  A$Bestiary$1388                    Bestiary
     00003E78  A$Bestiary$1389                    Bestiary
     00003E79  A$Bestiary$1390                    Bestiary
     00003E7B  A$Bestiary$1391                    Bestiary
     00003E7D  A$Bestiary$1392                    Bestiary
     00003E80  A$Bestiary$1396                    Bestiary
     00003E80  C$Bestiary.c$244$2_0$158           Bestiary
     00003E82  A$Bestiary$1397                    Bestiary
     00003E83  A$Bestiary$1398                    Bestiary
     00003E84  A$Bestiary$1399                    Bestiary
     00003E87  A$Bestiary$1400                    Bestiary
     00003E88  A$Bestiary$1401                    Bestiary
     00003E8A  A$Bestiary$1402                    Bestiary
     00003E8C  A$Bestiary$1403                    Bestiary
     00003E8F  A$Bestiary$1407                    Bestiary
     00003E8F  C$Bestiary.c$245$2_0$158           Bestiary
     00003E91  A$Bestiary$1408                    Bestiary
     00003E92  A$Bestiary$1409                    Bestiary
     00003E93  A$Bestiary$1410                    Bestiary
     00003E96  A$Bestiary$1411                    Bestiary
     00003E97  A$Bestiary$1412                    Bestiary
     00003E99  A$Bestiary$1413                    Bestiary
     00003E9B  A$Bestiary$1414                    Bestiary
     00003E9E  A$Bestiary$1418                    Bestiary
     00003E9E  C$Bestiary.c$246$2_0$158           Bestiary
     00003EA0  A$Bestiary$1419                    Bestiary
     00003EA1  A$Bestiary$1420                    Bestiary
ASxxxx Linker V03.00/V05.40 + sdld,  page 77.
Hexadecimal  [32-Bits]

Area                                    Addr        Size        Decimal Bytes (Attributes)
--------------------------------        ----        ----        ------- ----- ------------
_CODE                               00000200    0000601F =       24607. bytes (REL,CON)

      Value  Global                              Global Defined In Module
      -----  --------------------------------   ------------------------
     00003EA2  A$Bestiary$1421                    Bestiary
     00003EA5  A$Bestiary$1422                    Bestiary
     00003EA6  A$Bestiary$1423                    Bestiary
     00003EA8  A$Bestiary$1424                    Bestiary
     00003EAA  A$Bestiary$1425                    Bestiary
     00003EAD  A$Bestiary$1426                    Bestiary
     00003EB0  A$Bestiary$1431                    Bestiary
     00003EB0  C$Bestiary.c$248$1_0$142           Bestiary
     00003EB3  A$Bestiary$1432                    Bestiary
     00003EB5  A$Bestiary$1433                    Bestiary
     00003EB7  A$Bestiary$1437                    Bestiary
     00003EB7  C$Bestiary.c$250$2_0$159           Bestiary
     00003EBA  A$Bestiary$1438                    Bestiary
     00003EBB  A$Bestiary$1439                    Bestiary
     00003EBE  A$Bestiary$1440                    Bestiary
     00003EBF  A$Bestiary$1441                    Bestiary
     00003EC2  A$Bestiary$1442                    Bestiary
     00003EC4  A$Bestiary$1446                    Bestiary
     00003EC4  C$Bestiary.c$251$2_0$159           Bestiary
     00003EC7  A$Bestiary$1447                    Bestiary
     00003EC8  A$Bestiary$1448                    Bestiary
     00003ECB  A$Bestiary$1449                    Bestiary
     00003ECC  A$Bestiary$1450                    Bestiary
     00003ECF  A$Bestiary$1451                    Bestiary
     00003ED0  A$Bestiary$1452                    Bestiary
     00003ED3  A$Bestiary$1453                    Bestiary
     00003ED5  A$Bestiary$1457                    Bestiary
     00003ED5  C$Bestiary.c$252$2_0$159           Bestiary
     00003ED8  A$Bestiary$1458                    Bestiary
     00003ED9  A$Bestiary$1459                    Bestiary
     00003EDC  A$Bestiary$1460                    Bestiary
     00003EDD  A$Bestiary$1461                    Bestiary
     00003EDF  A$Bestiary$1462                    Bestiary
     00003EE1  A$Bestiary$1463                    Bestiary
     00003EE4  A$Bestiary$1467                    Bestiary
     00003EE4  C$Bestiary.c$254$2_0$159           Bestiary
     00003EE7  A$Bestiary$1468                    Bestiary
     00003EE8  A$Bestiary$1469                    Bestiary
     00003EEB  A$Bestiary$1470                    Bestiary
     00003EEC  A$Bestiary$1471                    Bestiary
     00003EEE  A$Bestiary$1472                    Bestiary
     00003EF0  A$Bestiary$1473                    Bestiary
     00003EF3  A$Bestiary$1477                    Bestiary
     00003EF3  C$Bestiary.c$255$2_0$159           Bestiary
     00003EF6  A$Bestiary$1478                    Bestiary
     00003EF7  A$Bestiary$1479                    Bestiary
     00003EFA  A$Bestiary$1480                    Bestiary
     00003EFB  A$Bestiary$1481                    Bestiary
     00003EFD  A$Bestiary$1482                    Bestiary
     00003EFF  A$Bestiary$1483                    Bestiary
     00003F02  A$Bestiary$1487                    Bestiary
ASxxxx Linker V03.00/V05.40 + sdld,  page 78.
Hexadecimal  [32-Bits]

Area                                    Addr        Size        Decimal Bytes (Attributes)
--------------------------------        ----        ----        ------- ----- ------------
_CODE                               00000200    0000601F =       24607. bytes (REL,CON)

      Value  Global                              Global Defined In Module
      -----  --------------------------------   ------------------------
     00003F02  C$Bestiary.c$256$2_0$159           Bestiary
     00003F05  A$Bestiary$1488                    Bestiary
     00003F06  A$Bestiary$1489                    Bestiary
     00003F09  A$Bestiary$1490                    Bestiary
     00003F0A  A$Bestiary$1491                    Bestiary
     00003F0C  A$Bestiary$1492                    Bestiary
     00003F0E  A$Bestiary$1493                    Bestiary
     00003F11  A$Bestiary$1497                    Bestiary
     00003F11  C$Bestiary.c$257$2_0$159           Bestiary
     00003F14  A$Bestiary$1498                    Bestiary
     00003F15  A$Bestiary$1499                    Bestiary
     00003F18  A$Bestiary$1500                    Bestiary
     00003F19  A$Bestiary$1501                    Bestiary
     00003F1B  A$Bestiary$1502                    Bestiary
     00003F1D  A$Bestiary$1503                    Bestiary
     00003F20  A$Bestiary$1507                    Bestiary
     00003F20  C$Bestiary.c$258$2_0$159           Bestiary
     00003F23  A$Bestiary$1508                    Bestiary
     00003F24  A$Bestiary$1509                    Bestiary
     00003F27  A$Bestiary$1510                    Bestiary
     00003F28  A$Bestiary$1511                    Bestiary
     00003F2A  A$Bestiary$1512                    Bestiary
     00003F2C  A$Bestiary$1513                    Bestiary
     00003F2F  A$Bestiary$1514                    Bestiary
     00003F32  A$Bestiary$1519                    Bestiary
     00003F32  C$Bestiary.c$260$1_0$142           Bestiary
     00003F35  A$Bestiary$1520                    Bestiary
     00003F37  A$Bestiary$1521                    Bestiary
     00003F39  A$Bestiary$1525                    Bestiary
     00003F39  C$Bestiary.c$262$2_0$160           Bestiary
     00003F3C  A$Bestiary$1526                    Bestiary
     00003F3D  A$Bestiary$1527                    Bestiary
     00003F40  A$Bestiary$1528                    Bestiary
     00003F41  A$Bestiary$1529                    Bestiary
     00003F44  A$Bestiary$1530                    Bestiary
     00003F46  A$Bestiary$1534                    Bestiary
     00003F46  C$Bestiary.c$263$2_0$160           Bestiary
     00003F49  A$Bestiary$1535                    Bestiary
     00003F4A  A$Bestiary$1536                    Bestiary
     00003F4D  A$Bestiary$1537                    Bestiary
     00003F4E  A$Bestiary$1538                    Bestiary
     00003F51  A$Bestiary$1539                    Bestiary
     00003F52  A$Bestiary$1540                    Bestiary
     00003F55  A$Bestiary$1541                    Bestiary
     00003F57  A$Bestiary$1545                    Bestiary
     00003F57  C$Bestiary.c$264$2_0$160           Bestiary
     00003F5A  A$Bestiary$1546                    Bestiary
     00003F5B  A$Bestiary$1547                    Bestiary
     00003F5E  A$Bestiary$1548                    Bestiary
     00003F5F  A$Bestiary$1549                    Bestiary
     00003F61  A$Bestiary$1550                    Bestiary
ASxxxx Linker V03.00/V05.40 + sdld,  page 79.
Hexadecimal  [32-Bits]

Area                                    Addr        Size        Decimal Bytes (Attributes)
--------------------------------        ----        ----        ------- ----- ------------
_CODE                               00000200    0000601F =       24607. bytes (REL,CON)

      Value  Global                              Global Defined In Module
      -----  --------------------------------   ------------------------
     00003F63  A$Bestiary$1551                    Bestiary
     00003F66  A$Bestiary$1555                    Bestiary
     00003F66  C$Bestiary.c$266$2_0$160           Bestiary
     00003F69  A$Bestiary$1556                    Bestiary
     00003F6A  A$Bestiary$1557                    Bestiary
     00003F6D  A$Bestiary$1558                    Bestiary
     00003F6E  A$Bestiary$1559                    Bestiary
     00003F70  A$Bestiary$1560                    Bestiary
     00003F72  A$Bestiary$1561                    Bestiary
     00003F75  A$Bestiary$1565                    Bestiary
     00003F75  C$Bestiary.c$267$2_0$160           Bestiary
     00003F78  A$Bestiary$1566                    Bestiary
     00003F79  A$Bestiary$1567                    Bestiary
     00003F7C  A$Bestiary$1568                    Bestiary
     00003F7D  A$Bestiary$1569                    Bestiary
     00003F7F  A$Bestiary$1570                    Bestiary
     00003F81  A$Bestiary$1571                    Bestiary
     00003F84  A$Bestiary$1575                    Bestiary
     00003F84  C$Bestiary.c$268$2_0$160           Bestiary
     00003F87  A$Bestiary$1576                    Bestiary
     00003F88  A$Bestiary$1577                    Bestiary
     00003F8B  A$Bestiary$1578                    Bestiary
     00003F8C  A$Bestiary$1579                    Bestiary
     00003F8E  A$Bestiary$1580                    Bestiary
     00003F90  A$Bestiary$1581                    Bestiary
     00003F93  A$Bestiary$1585                    Bestiary
     00003F93  C$Bestiary.c$269$2_0$160           Bestiary
     00003F96  A$Bestiary$1586                    Bestiary
     00003F97  A$Bestiary$1587                    Bestiary
     00003F9A  A$Bestiary$1588                    Bestiary
     00003F9B  A$Bestiary$1589                    Bestiary
     00003F9D  A$Bestiary$1590                    Bestiary
     00003F9F  A$Bestiary$1591                    Bestiary
     00003FA2  A$Bestiary$1595                    Bestiary
     00003FA2  C$Bestiary.c$270$2_0$160           Bestiary
     00003FA5  A$Bestiary$1596                    Bestiary
     00003FA6  A$Bestiary$1597                    Bestiary
     00003FA9  A$Bestiary$1598                    Bestiary
     00003FAA  A$Bestiary$1599                    Bestiary
     00003FAC  A$Bestiary$1600                    Bestiary
     00003FAE  A$Bestiary$1601                    Bestiary
     00003FB1  A$Bestiary$1602                    Bestiary
     00003FB4  A$Bestiary$1607                    Bestiary
     00003FB4  C$Bestiary.c$272$1_0$142           Bestiary
     00003FB7  A$Bestiary$1608                    Bestiary
     00003FB9  A$Bestiary$1609                    Bestiary
     00003FBC  A$Bestiary$1613                    Bestiary
     00003FBC  C$Bestiary.c$274$2_0$161           Bestiary
     00003FBF  A$Bestiary$1614                    Bestiary
     00003FC0  A$Bestiary$1615                    Bestiary
     00003FC3  A$Bestiary$1616                    Bestiary
ASxxxx Linker V03.00/V05.40 + sdld,  page 80.
Hexadecimal  [32-Bits]

Area                                    Addr        Size        Decimal Bytes (Attributes)
--------------------------------        ----        ----        ------- ----- ------------
_CODE                               00000200    0000601F =       24607. bytes (REL,CON)

      Value  Global                              Global Defined In Module
      -----  --------------------------------   ------------------------
     00003FC4  A$Bestiary$1617                    Bestiary
     00003FC7  A$Bestiary$1618                    Bestiary
     00003FC9  A$Bestiary$1622                    Bestiary
     00003FC9  C$Bestiary.c$275$2_0$161           Bestiary
     00003FCC  A$Bestiary$1623                    Bestiary
     00003FCD  A$Bestiary$1624                    Bestiary
     00003FD0  A$Bestiary$1625                    Bestiary
     00003FD1  A$Bestiary$1626                    Bestiary
     00003FD4  A$Bestiary$1627                    Bestiary
     00003FD5  A$Bestiary$1628                    Bestiary
     00003FD8  A$Bestiary$1629                    Bestiary
     00003FDA  A$Bestiary$1633                    Bestiary
     00003FDA  C$Bestiary.c$276$2_0$161           Bestiary
     00003FDD  A$Bestiary$1634                    Bestiary
     00003FDE  A$Bestiary$1635                    Bestiary
     00003FE1  A$Bestiary$1636                    Bestiary
     00003FE2  A$Bestiary$1637                    Bestiary
     00003FE4  A$Bestiary$1638                    Bestiary
     00003FE6  A$Bestiary$1639                    Bestiary
     00003FE9  A$Bestiary$1643                    Bestiary
     00003FE9  C$Bestiary.c$278$2_0$161           Bestiary
     00003FEC  A$Bestiary$1644                    Bestiary
     00003FED  A$Bestiary$1645                    Bestiary
     00003FF0  A$Bestiary$1646                    Bestiary
     00003FF1  A$Bestiary$1647                    Bestiary
     00003FF3  A$Bestiary$1648                    Bestiary
     00003FF5  A$Bestiary$1649                    Bestiary
     00003FF8  A$Bestiary$1653                    Bestiary
     00003FF8  C$Bestiary.c$279$2_0$161           Bestiary
     00003FFB  A$Bestiary$1654                    Bestiary
     00003FFC  A$Bestiary$1655                    Bestiary
     00003FFF  A$Bestiary$1656                    Bestiary
     00004000  A$Bestiary$1657                    Bestiary
     00004002  A$Bestiary$1658                    Bestiary
     00004004  A$Bestiary$1659                    Bestiary
     00004007  A$Bestiary$1663                    Bestiary
     00004007  C$Bestiary.c$280$2_0$161           Bestiary
     0000400A  A$Bestiary$1664                    Bestiary
     0000400B  A$Bestiary$1665                    Bestiary
     0000400E  A$Bestiary$1666                    Bestiary
     0000400F  A$Bestiary$1667                    Bestiary
     00004011  A$Bestiary$1668                    Bestiary
     00004013  A$Bestiary$1669                    Bestiary
     00004016  A$Bestiary$1673                    Bestiary
     00004016  C$Bestiary.c$281$2_0$161           Bestiary
     00004019  A$Bestiary$1674                    Bestiary
     0000401A  A$Bestiary$1675                    Bestiary
     0000401D  A$Bestiary$1676                    Bestiary
     0000401E  A$Bestiary$1677                    Bestiary
     00004020  A$Bestiary$1678                    Bestiary
     00004022  A$Bestiary$1679                    Bestiary
ASxxxx Linker V03.00/V05.40 + sdld,  page 81.
Hexadecimal  [32-Bits]

Area                                    Addr        Size        Decimal Bytes (Attributes)
--------------------------------        ----        ----        ------- ----- ------------
_CODE                               00000200    0000601F =       24607. bytes (REL,CON)

      Value  Global                              Global Defined In Module
      -----  --------------------------------   ------------------------
     00004025  A$Bestiary$1683                    Bestiary
     00004025  C$Bestiary.c$282$2_0$161           Bestiary
     00004028  A$Bestiary$1684                    Bestiary
     00004029  A$Bestiary$1685                    Bestiary
     0000402C  A$Bestiary$1686                    Bestiary
     0000402D  A$Bestiary$1687                    Bestiary
     0000402F  A$Bestiary$1688                    Bestiary
     00004031  A$Bestiary$1689                    Bestiary
     00004034  A$Bestiary$1693                    Bestiary
     00004034  C$Bestiary.c$283$2_0$161           Bestiary
     00004036  A$Bestiary$1694                    Bestiary
     00004037  A$Bestiary$1695                    Bestiary
     00004038  A$Bestiary$1696                    Bestiary
     0000403B  A$Bestiary$1697                    Bestiary
     0000403C  A$Bestiary$1698                    Bestiary
     0000403E  A$Bestiary$1699                    Bestiary
     00004040  A$Bestiary$1700                    Bestiary
     00004043  A$Bestiary$1704                    Bestiary
     00004043  C$Bestiary.c$284$2_0$161           Bestiary
     00004045  A$Bestiary$1705                    Bestiary
     00004046  A$Bestiary$1706                    Bestiary
     00004047  A$Bestiary$1707                    Bestiary
     0000404A  A$Bestiary$1708                    Bestiary
     0000404B  A$Bestiary$1709                    Bestiary
     0000404D  A$Bestiary$1710                    Bestiary
     0000404F  A$Bestiary$1711                    Bestiary
     00004052  A$Bestiary$1715                    Bestiary
     00004052  C$Bestiary.c$285$2_0$161           Bestiary
     00004054  A$Bestiary$1716                    Bestiary
     00004055  A$Bestiary$1717                    Bestiary
     00004056  A$Bestiary$1718                    Bestiary
     00004059  A$Bestiary$1719                    Bestiary
     0000405A  A$Bestiary$1720                    Bestiary
     0000405C  A$Bestiary$1721                    Bestiary
     0000405E  A$Bestiary$1722                    Bestiary
     00004061  A$Bestiary$1723                    Bestiary
     00004064  A$Bestiary$1728                    Bestiary
     00004064  C$Bestiary.c$287$1_0$142           Bestiary
     00004067  A$Bestiary$1729                    Bestiary
     00004069  A$Bestiary$1730                    Bestiary
     0000406C  A$Bestiary$1734                    Bestiary
     0000406C  C$Bestiary.c$289$2_0$162           Bestiary
     0000406F  A$Bestiary$1735                    Bestiary
     00004070  A$Bestiary$1736                    Bestiary
     00004073  A$Bestiary$1737                    Bestiary
     00004074  A$Bestiary$1738                    Bestiary
     00004077  A$Bestiary$1739                    Bestiary
     00004079  A$Bestiary$1743                    Bestiary
     00004079  C$Bestiary.c$290$2_0$162           Bestiary
     0000407C  A$Bestiary$1744                    Bestiary
     0000407D  A$Bestiary$1745                    Bestiary
ASxxxx Linker V03.00/V05.40 + sdld,  page 82.
Hexadecimal  [32-Bits]

Area                                    Addr        Size        Decimal Bytes (Attributes)
--------------------------------        ----        ----        ------- ----- ------------
_CODE                               00000200    0000601F =       24607. bytes (REL,CON)

      Value  Global                              Global Defined In Module
      -----  --------------------------------   ------------------------
     00004080  A$Bestiary$1746                    Bestiary
     00004081  A$Bestiary$1747                    Bestiary
     00004084  A$Bestiary$1748                    Bestiary
     00004085  A$Bestiary$1749                    Bestiary
     00004088  A$Bestiary$1750                    Bestiary
     0000408A  A$Bestiary$1754                    Bestiary
     0000408A  C$Bestiary.c$291$2_0$162           Bestiary
     0000408D  A$Bestiary$1755                    Bestiary
     0000408E  A$Bestiary$1756                    Bestiary
     00004091  A$Bestiary$1757                    Bestiary
     00004092  A$Bestiary$1758                    Bestiary
     00004094  A$Bestiary$1759                    Bestiary
     00004096  A$Bestiary$1760                    Bestiary
     00004099  A$Bestiary$1764                    Bestiary
     00004099  C$Bestiary.c$293$2_0$162           Bestiary
     0000409C  A$Bestiary$1765                    Bestiary
     0000409D  A$Bestiary$1766                    Bestiary
     000040A0  A$Bestiary$1767                    Bestiary
     000040A1  A$Bestiary$1768                    Bestiary
     000040A3  A$Bestiary$1769                    Bestiary
     000040A5  A$Bestiary$1770                    Bestiary
     000040A8  A$Bestiary$1774                    Bestiary
     000040A8  C$Bestiary.c$294$2_0$162           Bestiary
     000040AB  A$Bestiary$1775                    Bestiary
     000040AC  A$Bestiary$1776                    Bestiary
     000040AF  A$Bestiary$1777                    Bestiary
     000040B0  A$Bestiary$1778                    Bestiary
     000040B2  A$Bestiary$1779                    Bestiary
     000040B4  A$Bestiary$1780                    Bestiary
     000040B7  A$Bestiary$1784                    Bestiary
     000040B7  C$Bestiary.c$295$2_0$162           Bestiary
     000040BA  A$Bestiary$1785                    Bestiary
     000040BB  A$Bestiary$1786                    Bestiary
     000040BE  A$Bestiary$1787                    Bestiary
     000040BF  A$Bestiary$1788                    Bestiary
     000040C1  A$Bestiary$1789                    Bestiary
     000040C3  A$Bestiary$1790                    Bestiary
     000040C6  A$Bestiary$1794                    Bestiary
     000040C6  C$Bestiary.c$296$2_0$162           Bestiary
     000040C9  A$Bestiary$1795                    Bestiary
     000040CA  A$Bestiary$1796                    Bestiary
     000040CD  A$Bestiary$1797                    Bestiary
     000040CE  A$Bestiary$1798                    Bestiary
     000040D0  A$Bestiary$1799                    Bestiary
     000040D2  A$Bestiary$1800                    Bestiary
     000040D5  A$Bestiary$1804                    Bestiary
     000040D5  C$Bestiary.c$297$2_0$162           Bestiary
     000040D8  A$Bestiary$1805                    Bestiary
     000040D9  A$Bestiary$1806                    Bestiary
     000040DC  A$Bestiary$1807                    Bestiary
     000040DD  A$Bestiary$1808                    Bestiary
ASxxxx Linker V03.00/V05.40 + sdld,  page 83.
Hexadecimal  [32-Bits]

Area                                    Addr        Size        Decimal Bytes (Attributes)
--------------------------------        ----        ----        ------- ----- ------------
_CODE                               00000200    0000601F =       24607. bytes (REL,CON)

      Value  Global                              Global Defined In Module
      -----  --------------------------------   ------------------------
     000040DF  A$Bestiary$1809                    Bestiary
     000040E1  A$Bestiary$1810                    Bestiary
     000040E4  A$Bestiary$1814                    Bestiary
     000040E4  C$Bestiary.c$298$2_0$162           Bestiary
     000040E6  A$Bestiary$1815                    Bestiary
     000040E7  A$Bestiary$1816                    Bestiary
     000040E8  A$Bestiary$1817                    Bestiary
     000040EB  A$Bestiary$1818                    Bestiary
     000040EC  A$Bestiary$1819                    Bestiary
     000040EE  A$Bestiary$1820                    Bestiary
     000040F0  A$Bestiary$1821                    Bestiary
     000040F3  A$Bestiary$1825                    Bestiary
     000040F3  C$Bestiary.c$299$2_0$162           Bestiary
     000040F5  A$Bestiary$1826                    Bestiary
     000040F6  A$Bestiary$1827                    Bestiary
     000040F7  A$Bestiary$1828                    Bestiary
     000040FA  A$Bestiary$1829                    Bestiary
     000040FB  A$Bestiary$1830                    Bestiary
     000040FD  A$Bestiary$1831                    Bestiary
     000040FF  A$Bestiary$1832                    Bestiary
     00004102  A$Bestiary$1836                    Bestiary
     00004102  C$Bestiary.c$300$2_0$162           Bestiary
     00004104  A$Bestiary$1837                    Bestiary
     00004105  A$Bestiary$1838                    Bestiary
     00004106  A$Bestiary$1839                    Bestiary
     00004109  A$Bestiary$1840                    Bestiary
     0000410A  A$Bestiary$1841                    Bestiary
     0000410C  A$Bestiary$1842                    Bestiary
     0000410E  A$Bestiary$1843                    Bestiary
     00004111  A$Bestiary$1844                    Bestiary
     00004114  A$Bestiary$1849                    Bestiary
     00004114  C$Bestiary.c$302$1_0$142           Bestiary
     00004117  A$Bestiary$1850                    Bestiary
     00004119  A$Bestiary$1851                    Bestiary
     0000411B  A$Bestiary$1855                    Bestiary
     0000411B  C$Bestiary.c$304$2_0$163           Bestiary
     0000411E  A$Bestiary$1856                    Bestiary
     0000411F  A$Bestiary$1857                    Bestiary
     00004122  A$Bestiary$1858                    Bestiary
     00004123  A$Bestiary$1859                    Bestiary
     00004126  A$Bestiary$1860                    Bestiary
     00004128  A$Bestiary$1864                    Bestiary
     00004128  C$Bestiary.c$305$2_0$163           Bestiary
     0000412B  A$Bestiary$1865                    Bestiary
     0000412C  A$Bestiary$1866                    Bestiary
     0000412F  A$Bestiary$1867                    Bestiary
     00004130  A$Bestiary$1868                    Bestiary
     00004133  A$Bestiary$1869                    Bestiary
     00004134  A$Bestiary$1870                    Bestiary
     00004137  A$Bestiary$1871                    Bestiary
     00004139  A$Bestiary$1875                    Bestiary
ASxxxx Linker V03.00/V05.40 + sdld,  page 84.
Hexadecimal  [32-Bits]

Area                                    Addr        Size        Decimal Bytes (Attributes)
--------------------------------        ----        ----        ------- ----- ------------
_CODE                               00000200    0000601F =       24607. bytes (REL,CON)

      Value  Global                              Global Defined In Module
      -----  --------------------------------   ------------------------
     00004139  C$Bestiary.c$306$2_0$163           Bestiary
     0000413C  A$Bestiary$1876                    Bestiary
     0000413D  A$Bestiary$1877                    Bestiary
     00004140  A$Bestiary$1878                    Bestiary
     00004141  A$Bestiary$1879                    Bestiary
     00004143  A$Bestiary$1880                    Bestiary
     00004145  A$Bestiary$1881                    Bestiary
     00004148  A$Bestiary$1885                    Bestiary
     00004148  C$Bestiary.c$307$2_0$163           Bestiary
     0000414A  A$Bestiary$1886                    Bestiary
     0000414B  A$Bestiary$1887                    Bestiary
     0000414C  A$Bestiary$1888                    Bestiary
     0000414F  A$Bestiary$1889                    Bestiary
     00004150  A$Bestiary$1890                    Bestiary
     00004152  A$Bestiary$1891                    Bestiary
     00004154  A$Bestiary$1892                    Bestiary
     00004157  A$Bestiary$1896                    Bestiary
     00004157  C$Bestiary.c$308$2_0$163           Bestiary
     00004159  A$Bestiary$1897                    Bestiary
     0000415A  A$Bestiary$1898                    Bestiary
     0000415B  A$Bestiary$1899                    Bestiary
     0000415E  A$Bestiary$1900                    Bestiary
     0000415F  A$Bestiary$1901                    Bestiary
     00004161  A$Bestiary$1902                    Bestiary
     00004163  A$Bestiary$1903                    Bestiary
     00004166  A$Bestiary$1907                    Bestiary
     00004166  C$Bestiary.c$309$2_0$163           Bestiary
     00004168  A$Bestiary$1908                    Bestiary
     00004169  A$Bestiary$1909                    Bestiary
     0000416A  A$Bestiary$1910                    Bestiary
     0000416D  A$Bestiary$1911                    Bestiary
     0000416E  A$Bestiary$1912                    Bestiary
     00004170  A$Bestiary$1913                    Bestiary
     00004172  A$Bestiary$1914                    Bestiary
     00004175  A$Bestiary$1918                    Bestiary
     00004175  C$Bestiary.c$310$2_0$163           Bestiary
     00004177  A$Bestiary$1919                    Bestiary
     00004178  A$Bestiary$1920                    Bestiary
     00004179  A$Bestiary$1921                    Bestiary
     0000417C  A$Bestiary$1922                    Bestiary
     0000417D  A$Bestiary$1923                    Bestiary
     0000417F  A$Bestiary$1924                    Bestiary
     00004181  A$Bestiary$1925                    Bestiary
     00004184  A$Bestiary$1926                    Bestiary
     00004187  A$Bestiary$1931                    Bestiary
     00004187  C$Bestiary.c$312$1_0$142           Bestiary
     0000418A  A$Bestiary$1932                    Bestiary
     0000418C  A$Bestiary$1933                    Bestiary
     0000418E  A$Bestiary$1937                    Bestiary
     0000418E  C$Bestiary.c$314$2_0$164           Bestiary
     00004191  A$Bestiary$1938                    Bestiary
ASxxxx Linker V03.00/V05.40 + sdld,  page 85.
Hexadecimal  [32-Bits]

Area                                    Addr        Size        Decimal Bytes (Attributes)
--------------------------------        ----        ----        ------- ----- ------------
_CODE                               00000200    0000601F =       24607. bytes (REL,CON)

      Value  Global                              Global Defined In Module
      -----  --------------------------------   ------------------------
     00004192  A$Bestiary$1939                    Bestiary
     00004195  A$Bestiary$1940                    Bestiary
     00004196  A$Bestiary$1941                    Bestiary
     00004199  A$Bestiary$1942                    Bestiary
     0000419B  A$Bestiary$1946                    Bestiary
     0000419B  C$Bestiary.c$315$2_0$164           Bestiary
     0000419E  A$Bestiary$1947                    Bestiary
     0000419F  A$Bestiary$1948                    Bestiary
     000041A2  A$Bestiary$1949                    Bestiary
     000041A3  A$Bestiary$1950                    Bestiary
     000041A6  A$Bestiary$1951                    Bestiary
     000041A7  A$Bestiary$1952                    Bestiary
     000041AA  A$Bestiary$1953                    Bestiary
     000041AC  A$Bestiary$1957                    Bestiary
     000041AC  C$Bestiary.c$316$2_0$164           Bestiary
     000041AF  A$Bestiary$1958                    Bestiary
     000041B0  A$Bestiary$1959                    Bestiary
     000041B3  A$Bestiary$1960                    Bestiary
     000041B4  A$Bestiary$1961                    Bestiary
     000041B6  A$Bestiary$1962                    Bestiary
     000041B8  A$Bestiary$1963                    Bestiary
     000041BB  A$Bestiary$1967                    Bestiary
     000041BB  C$Bestiary.c$317$2_0$164           Bestiary
     000041BD  A$Bestiary$1968                    Bestiary
     000041BE  A$Bestiary$1969                    Bestiary
     000041BF  A$Bestiary$1970                    Bestiary
     000041C2  A$Bestiary$1971                    Bestiary
     000041C3  A$Bestiary$1972                    Bestiary
     000041C5  A$Bestiary$1973                    Bestiary
     000041C7  A$Bestiary$1974                    Bestiary
     000041CA  A$Bestiary$1978                    Bestiary
     000041CA  C$Bestiary.c$318$2_0$164           Bestiary
     000041CC  A$Bestiary$1979                    Bestiary
     000041CD  A$Bestiary$1980                    Bestiary
     000041CE  A$Bestiary$1981                    Bestiary
     000041D1  A$Bestiary$1982                    Bestiary
     000041D2  A$Bestiary$1983                    Bestiary
     000041D4  A$Bestiary$1984                    Bestiary
     000041D6  A$Bestiary$1985                    Bestiary
     000041D9  A$Bestiary$1989                    Bestiary
     000041D9  C$Bestiary.c$319$2_0$164           Bestiary
     000041DB  A$Bestiary$1990                    Bestiary
     000041DC  A$Bestiary$1991                    Bestiary
     000041DD  A$Bestiary$1992                    Bestiary
     000041E0  A$Bestiary$1993                    Bestiary
     000041E1  A$Bestiary$1994                    Bestiary
     000041E3  A$Bestiary$1995                    Bestiary
     000041E5  A$Bestiary$1996                    Bestiary
     000041E8  A$Bestiary$1997                    Bestiary
     000041EB  A$Bestiary$2002                    Bestiary
     000041EB  C$Bestiary.c$321$1_0$142           Bestiary
ASxxxx Linker V03.00/V05.40 + sdld,  page 86.
Hexadecimal  [32-Bits]

Area                                    Addr        Size        Decimal Bytes (Attributes)
--------------------------------        ----        ----        ------- ----- ------------
_CODE                               00000200    0000601F =       24607. bytes (REL,CON)

      Value  Global                              Global Defined In Module
      -----  --------------------------------   ------------------------
     000041EE  A$Bestiary$2003                    Bestiary
     000041F0  A$Bestiary$2004                    Bestiary
     000041F2  A$Bestiary$2008                    Bestiary
     000041F2  C$Bestiary.c$323$2_0$165           Bestiary
     000041F5  A$Bestiary$2009                    Bestiary
     000041F6  A$Bestiary$2010                    Bestiary
     000041F9  A$Bestiary$2011                    Bestiary
     000041FA  A$Bestiary$2012                    Bestiary
     000041FD  A$Bestiary$2013                    Bestiary
     000041FF  A$Bestiary$2017                    Bestiary
     000041FF  C$Bestiary.c$324$2_0$165           Bestiary
     00004202  A$Bestiary$2018                    Bestiary
     00004203  A$Bestiary$2019                    Bestiary
     00004206  A$Bestiary$2020                    Bestiary
     00004207  A$Bestiary$2021                    Bestiary
     0000420A  A$Bestiary$2022                    Bestiary
     0000420B  A$Bestiary$2023                    Bestiary
     0000420E  A$Bestiary$2024                    Bestiary
     00004210  A$Bestiary$2028                    Bestiary
     00004210  C$Bestiary.c$325$2_0$165           Bestiary
     00004213  A$Bestiary$2029                    Bestiary
     00004214  A$Bestiary$2030                    Bestiary
     00004217  A$Bestiary$2031                    Bestiary
     00004218  A$Bestiary$2032                    Bestiary
     0000421A  A$Bestiary$2033                    Bestiary
     0000421C  A$Bestiary$2034                    Bestiary
     0000421F  A$Bestiary$2038                    Bestiary
     0000421F  C$Bestiary.c$326$2_0$165           Bestiary
     00004221  A$Bestiary$2039                    Bestiary
     00004222  A$Bestiary$2040                    Bestiary
     00004223  A$Bestiary$2041                    Bestiary
     00004226  A$Bestiary$2042                    Bestiary
     00004227  A$Bestiary$2043                    Bestiary
     00004229  A$Bestiary$2044                    Bestiary
     0000422B  A$Bestiary$2045                    Bestiary
     0000422E  A$Bestiary$2049                    Bestiary
     0000422E  C$Bestiary.c$327$2_0$165           Bestiary
     00004230  A$Bestiary$2050                    Bestiary
     00004231  A$Bestiary$2051                    Bestiary
     00004232  A$Bestiary$2052                    Bestiary
     00004235  A$Bestiary$2053                    Bestiary
     00004236  A$Bestiary$2054                    Bestiary
     00004238  A$Bestiary$2055                    Bestiary
     0000423A  A$Bestiary$2056                    Bestiary
     0000423D  A$Bestiary$2060                    Bestiary
     0000423D  C$Bestiary.c$328$2_0$165           Bestiary
     0000423F  A$Bestiary$2061                    Bestiary
     00004240  A$Bestiary$2062                    Bestiary
     00004241  A$Bestiary$2063                    Bestiary
     00004244  A$Bestiary$2064                    Bestiary
     00004245  A$Bestiary$2065                    Bestiary
ASxxxx Linker V03.00/V05.40 + sdld,  page 87.
Hexadecimal  [32-Bits]

Area                                    Addr        Size        Decimal Bytes (Attributes)
--------------------------------        ----        ----        ------- ----- ------------
_CODE                               00000200    0000601F =       24607. bytes (REL,CON)

      Value  Global                              Global Defined In Module
      -----  --------------------------------   ------------------------
     00004247  A$Bestiary$2066                    Bestiary
     00004249  A$Bestiary$2067                    Bestiary
     0000424C  A$Bestiary$2068                    Bestiary
     0000424F  A$Bestiary$2073                    Bestiary
     0000424F  C$Bestiary.c$330$1_0$142           Bestiary
     00004252  A$Bestiary$2074                    Bestiary
     00004254  A$Bestiary$2075                    Bestiary
     00004256  A$Bestiary$2079                    Bestiary
     00004256  C$Bestiary.c$332$2_0$166           Bestiary
     00004259  A$Bestiary$2080                    Bestiary
     0000425A  A$Bestiary$2081                    Bestiary
     0000425D  A$Bestiary$2082                    Bestiary
     0000425E  A$Bestiary$2083                    Bestiary
     00004261  A$Bestiary$2084                    Bestiary
     00004263  A$Bestiary$2088                    Bestiary
     00004263  C$Bestiary.c$333$2_0$166           Bestiary
     00004266  A$Bestiary$2089                    Bestiary
     00004267  A$Bestiary$2090                    Bestiary
     0000426A  A$Bestiary$2091                    Bestiary
     0000426B  A$Bestiary$2092                    Bestiary
     0000426E  A$Bestiary$2093                    Bestiary
     0000426F  A$Bestiary$2094                    Bestiary
     00004272  A$Bestiary$2095                    Bestiary
     00004274  A$Bestiary$2099                    Bestiary
     00004274  C$Bestiary.c$334$2_0$166           Bestiary
     00004277  A$Bestiary$2100                    Bestiary
     00004278  A$Bestiary$2101                    Bestiary
     0000427B  A$Bestiary$2102                    Bestiary
     0000427C  A$Bestiary$2103                    Bestiary
     0000427E  A$Bestiary$2104                    Bestiary
     00004280  A$Bestiary$2105                    Bestiary
     00004283  A$Bestiary$2109                    Bestiary
     00004283  C$Bestiary.c$335$2_0$166           Bestiary
     00004285  A$Bestiary$2110                    Bestiary
     00004286  A$Bestiary$2111                    Bestiary
     00004287  A$Bestiary$2112                    Bestiary
     0000428A  A$Bestiary$2113                    Bestiary
     0000428B  A$Bestiary$2114                    Bestiary
     0000428D  A$Bestiary$2115                    Bestiary
     0000428F  A$Bestiary$2116                    Bestiary
     00004292  A$Bestiary$2120                    Bestiary
     00004292  C$Bestiary.c$336$2_0$166           Bestiary
     00004294  A$Bestiary$2121                    Bestiary
     00004295  A$Bestiary$2122                    Bestiary
     00004296  A$Bestiary$2123                    Bestiary
     00004299  A$Bestiary$2124                    Bestiary
     0000429A  A$Bestiary$2125                    Bestiary
     0000429C  A$Bestiary$2126                    Bestiary
     0000429E  A$Bestiary$2127                    Bestiary
     000042A1  A$Bestiary$2131                    Bestiary
     000042A1  C$Bestiary.c$337$2_0$166           Bestiary
ASxxxx Linker V03.00/V05.40 + sdld,  page 88.
Hexadecimal  [32-Bits]

Area                                    Addr        Size        Decimal Bytes (Attributes)
--------------------------------        ----        ----        ------- ----- ------------
_CODE                               00000200    0000601F =       24607. bytes (REL,CON)

      Value  Global                              Global Defined In Module
      -----  --------------------------------   ------------------------
     000042A3  A$Bestiary$2132                    Bestiary
     000042A4  A$Bestiary$2133                    Bestiary
     000042A5  A$Bestiary$2134                    Bestiary
     000042A8  A$Bestiary$2135                    Bestiary
     000042A9  A$Bestiary$2136                    Bestiary
     000042AB  A$Bestiary$2137                    Bestiary
     000042AD  A$Bestiary$2138                    Bestiary
     000042B0  A$Bestiary$2142                    Bestiary
     000042B0  C$Bestiary.c$338$2_0$166           Bestiary
     000042B2  A$Bestiary$2143                    Bestiary
     000042B3  A$Bestiary$2144                    Bestiary
     000042B4  A$Bestiary$2145                    Bestiary
     000042B7  A$Bestiary$2146                    Bestiary
     000042B8  A$Bestiary$2147                    Bestiary
     000042BA  A$Bestiary$2148                    Bestiary
     000042BC  A$Bestiary$2149                    Bestiary
     000042BF  A$Bestiary$2150                    Bestiary
     000042C2  A$Bestiary$2155                    Bestiary
     000042C2  C$Bestiary.c$340$1_0$142           Bestiary
     000042C5  A$Bestiary$2156                    Bestiary
     000042C7  A$Bestiary$2157                    Bestiary
     000042C9  A$Bestiary$2161                    Bestiary
     000042C9  C$Bestiary.c$342$2_0$167           Bestiary
     000042CC  A$Bestiary$2162                    Bestiary
     000042CD  A$Bestiary$2163                    Bestiary
     000042D0  A$Bestiary$2164                    Bestiary
     000042D1  A$Bestiary$2165                    Bestiary
     000042D4  A$Bestiary$2166                    Bestiary
     000042D6  A$Bestiary$2170                    Bestiary
     000042D6  C$Bestiary.c$343$2_0$167           Bestiary
     000042D9  A$Bestiary$2171                    Bestiary
     000042DA  A$Bestiary$2172                    Bestiary
     000042DD  A$Bestiary$2173                    Bestiary
     000042DE  A$Bestiary$2174                    Bestiary
     000042E1  A$Bestiary$2175                    Bestiary
     000042E2  A$Bestiary$2176                    Bestiary
     000042E5  A$Bestiary$2177                    Bestiary
     000042E7  A$Bestiary$2181                    Bestiary
     000042E7  C$Bestiary.c$344$2_0$167           Bestiary
     000042EA  A$Bestiary$2182                    Bestiary
     000042EB  A$Bestiary$2183                    Bestiary
     000042EE  A$Bestiary$2184                    Bestiary
     000042EF  A$Bestiary$2185                    Bestiary
     000042F1  A$Bestiary$2186                    Bestiary
     000042F3  A$Bestiary$2187                    Bestiary
     000042F6  A$Bestiary$2191                    Bestiary
     000042F6  C$Bestiary.c$345$2_0$167           Bestiary
     000042F8  A$Bestiary$2192                    Bestiary
     000042F9  A$Bestiary$2193                    Bestiary
     000042FA  A$Bestiary$2194                    Bestiary
     000042FD  A$Bestiary$2195                    Bestiary
ASxxxx Linker V03.00/V05.40 + sdld,  page 89.
Hexadecimal  [32-Bits]

Area                                    Addr        Size        Decimal Bytes (Attributes)
--------------------------------        ----        ----        ------- ----- ------------
_CODE                               00000200    0000601F =       24607. bytes (REL,CON)

      Value  Global                              Global Defined In Module
      -----  --------------------------------   ------------------------
     000042FE  A$Bestiary$2196                    Bestiary
     00004300  A$Bestiary$2197                    Bestiary
     00004302  A$Bestiary$2198                    Bestiary
     00004305  A$Bestiary$2202                    Bestiary
     00004305  C$Bestiary.c$346$2_0$167           Bestiary
     00004307  A$Bestiary$2203                    Bestiary
     00004308  A$Bestiary$2204                    Bestiary
     00004309  A$Bestiary$2205                    Bestiary
     0000430C  A$Bestiary$2206                    Bestiary
     0000430D  A$Bestiary$2207                    Bestiary
     0000430F  A$Bestiary$2208                    Bestiary
     00004311  A$Bestiary$2209                    Bestiary
     00004314  A$Bestiary$2213                    Bestiary
     00004314  C$Bestiary.c$347$2_0$167           Bestiary
     00004316  A$Bestiary$2214                    Bestiary
     00004317  A$Bestiary$2215                    Bestiary
     00004318  A$Bestiary$2216                    Bestiary
     0000431B  A$Bestiary$2217                    Bestiary
     0000431C  A$Bestiary$2218                    Bestiary
     0000431E  A$Bestiary$2219                    Bestiary
     00004320  A$Bestiary$2220                    Bestiary
     00004323  A$Bestiary$2224                    Bestiary
     00004323  C$Bestiary.c$348$2_0$167           Bestiary
     00004325  A$Bestiary$2225                    Bestiary
     00004326  A$Bestiary$2226                    Bestiary
     00004327  A$Bestiary$2227                    Bestiary
     0000432A  A$Bestiary$2228                    Bestiary
     0000432B  A$Bestiary$2229                    Bestiary
     0000432D  A$Bestiary$2230                    Bestiary
     0000432F  A$Bestiary$2231                    Bestiary
     00004332  A$Bestiary$2232                    Bestiary
     00004334  A$Bestiary$2237                    Bestiary
     00004334  C$Bestiary.c$350$1_0$142           Bestiary
     00004337  A$Bestiary$2238                    Bestiary
     00004339  A$Bestiary$2239                    Bestiary
     0000433B  A$Bestiary$2243                    Bestiary
     0000433B  C$Bestiary.c$352$2_0$168           Bestiary
     0000433E  A$Bestiary$2244                    Bestiary
     0000433F  A$Bestiary$2245                    Bestiary
     00004342  A$Bestiary$2246                    Bestiary
     00004343  A$Bestiary$2247                    Bestiary
     00004346  A$Bestiary$2248                    Bestiary
     00004348  A$Bestiary$2252                    Bestiary
     00004348  C$Bestiary.c$353$2_0$168           Bestiary
     0000434B  A$Bestiary$2253                    Bestiary
     0000434C  A$Bestiary$2254                    Bestiary
     0000434F  A$Bestiary$2255                    Bestiary
     00004350  A$Bestiary$2256                    Bestiary
     00004353  A$Bestiary$2257                    Bestiary
     00004354  A$Bestiary$2258                    Bestiary
     00004357  A$Bestiary$2259                    Bestiary
ASxxxx Linker V03.00/V05.40 + sdld,  page 90.
Hexadecimal  [32-Bits]

Area                                    Addr        Size        Decimal Bytes (Attributes)
--------------------------------        ----        ----        ------- ----- ------------
_CODE                               00000200    0000601F =       24607. bytes (REL,CON)

      Value  Global                              Global Defined In Module
      -----  --------------------------------   ------------------------
     00004359  A$Bestiary$2263                    Bestiary
     00004359  C$Bestiary.c$354$2_0$168           Bestiary
     0000435C  A$Bestiary$2264                    Bestiary
     0000435D  A$Bestiary$2265                    Bestiary
     00004360  A$Bestiary$2266                    Bestiary
     00004361  A$Bestiary$2267                    Bestiary
     00004363  A$Bestiary$2268                    Bestiary
     00004365  A$Bestiary$2269                    Bestiary
     00004368  A$Bestiary$2273                    Bestiary
     00004368  C$Bestiary.c$355$2_0$168           Bestiary
     0000436A  A$Bestiary$2274                    Bestiary
     0000436B  A$Bestiary$2275                    Bestiary
     0000436C  A$Bestiary$2276                    Bestiary
     0000436F  A$Bestiary$2277                    Bestiary
     00004370  A$Bestiary$2278                    Bestiary
     00004372  A$Bestiary$2279                    Bestiary
     00004374  A$Bestiary$2280                    Bestiary
     00004377  A$Bestiary$2284                    Bestiary
     00004377  C$Bestiary.c$356$2_0$168           Bestiary
     00004379  A$Bestiary$2285                    Bestiary
     0000437A  A$Bestiary$2286                    Bestiary
     0000437B  A$Bestiary$2287                    Bestiary
     0000437E  A$Bestiary$2288                    Bestiary
     0000437F  A$Bestiary$2289                    Bestiary
     00004381  A$Bestiary$2290                    Bestiary
     00004383  A$Bestiary$2291                    Bestiary
     00004386  A$Bestiary$2295                    Bestiary
     00004386  C$Bestiary.c$357$2_0$168           Bestiary
     00004388  A$Bestiary$2296                    Bestiary
     00004389  A$Bestiary$2297                    Bestiary
     0000438A  A$Bestiary$2298                    Bestiary
     0000438D  A$Bestiary$2299                    Bestiary
     0000438E  A$Bestiary$2300                    Bestiary
     00004390  A$Bestiary$2301                    Bestiary
     00004392  A$Bestiary$2302                    Bestiary
     00004395  A$Bestiary$2306                    Bestiary
     00004395  C$Bestiary.c$358$2_0$168           Bestiary
     00004397  A$Bestiary$2307                    Bestiary
     00004398  A$Bestiary$2308                    Bestiary
     00004399  A$Bestiary$2309                    Bestiary
     0000439C  A$Bestiary$2310                    Bestiary
     0000439D  A$Bestiary$2311                    Bestiary
     0000439F  A$Bestiary$2312                    Bestiary
     000043A1  A$Bestiary$2313                    Bestiary
     000043A4  A$Bestiary$2318                    Bestiary
     000043A4  C$Bestiary.c$360$1_0$142           Bestiary
     000043A6  A$Bestiary$2326                    Bestiary
     000043A6  C$Bestiary.c$361$1_0$142           Bestiary
     000043A6  XG$BestiaryUpdate$0$0              Bestiary
     000043A7  FBestiary$__str_0$0_0$0            Bestiary
     000043B1  FBestiary$__str_1$0_0$0            Bestiary
ASxxxx Linker V03.00/V05.40 + sdld,  page 91.
Hexadecimal  [32-Bits]

Area                                    Addr        Size        Decimal Bytes (Attributes)
--------------------------------        ----        ----        ------- ----- ------------
_CODE                               00000200    0000601F =       24607. bytes (REL,CON)

      Value  Global                              Global Defined In Module
      -----  --------------------------------   ------------------------
     000043C3  FBestiary$__str_2$0_0$0            Bestiary
     000043D2  FBestiary$__str_3$0_0$0            Bestiary
     000043E2  FBestiary$__str_4$0_0$0            Bestiary
     000043F2  FBestiary$__str_5$0_0$0            Bestiary
     000043FE  FBestiary$__str_6$0_0$0            Bestiary
     0000440C  FBestiary$__str_7$0_0$0            Bestiary
     0000441A  FBestiary$__str_8$0_0$0            Bestiary
     00004427  FBestiary$__str_9$0_0$0            Bestiary
     00004431  FBestiary$__str_10$0_0$0           Bestiary
     0000443F  FBestiary$__str_11$0_0$0           Bestiary
     00004449  FBestiary$__str_12$0_0$0           Bestiary
     00004456  FBestiary$__str_13$0_0$0           Bestiary
     00004462  FBestiary$__str_14$0_0$0           Bestiary
     00004473  FBestiary$__str_15$0_0$0           Bestiary
     00004484  FBestiary$__str_16$0_0$0           Bestiary
     00004493  FBestiary$__str_17$0_0$0           Bestiary
     000044A1  FBestiary$__str_18$0_0$0           Bestiary
     000044B1  FBestiary$__str_19$0_0$0           Bestiary
     000044C1  FBestiary$__str_20$0_0$0           Bestiary
     000044D3  FBestiary$__str_21$0_0$0           Bestiary
     000044E3  FBestiary$__str_22$0_0$0           Bestiary
     000044F2  FBestiary$__str_23$0_0$0           Bestiary
     00004500  FBestiary$__str_24$0_0$0           Bestiary
     00004512  FBestiary$__str_25$0_0$0           Bestiary
     00004520  FBestiary$__str_26$0_0$0           Bestiary
     00004531  FBestiary$__str_27$0_0$0           Bestiary
     0000453F  FBestiary$__str_28$0_0$0           Bestiary
     00004550  FBestiary$__str_29$0_0$0           Bestiary
     0000455B  FBestiary$__str_30$0_0$0           Bestiary
     00004568  FBestiary$__str_31$0_0$0           Bestiary
     0000456F  FBestiary$__str_32$0_0$0           Bestiary
     0000457C  FBestiary$__str_33$0_0$0           Bestiary
     00004589  FBestiary$__str_34$0_0$0           Bestiary
     00004595  FBestiary$__str_35$0_0$0           Bestiary
     000045A3  FBestiary$__str_36$0_0$0           Bestiary
     000045AE  FBestiary$__str_37$0_0$0           Bestiary
     000045B9  FBestiary$__str_38$0_0$0           Bestiary
     000045C8  FBestiary$__str_39$0_0$0           Bestiary
     000045D5  FBestiary$__str_40$0_0$0           Bestiary
     000045E0  FBestiary$__str_41$0_0$0           Bestiary
     000045ED  FBestiary$__str_42$0_0$0           Bestiary
     000045FB  FBestiary$__str_43$0_0$0           Bestiary
     00004608  FBestiary$__str_44$0_0$0           Bestiary
     00004615  FBestiary$__str_45$0_0$0           Bestiary
     00004622  FBestiary$__str_46$0_0$0           Bestiary
     0000462B  FBestiary$__str_47$0_0$0           Bestiary
     00004634  FBestiary$__str_48$0_0$0           Bestiary
     0000463F  FBestiary$__str_49$0_0$0           Bestiary
     0000464B  FBestiary$__str_50$0_0$0           Bestiary
     00004655  FBestiary$__str_51$0_0$0           Bestiary
     0000465D  FBestiary$__str_52$0_0$0           Bestiary
ASxxxx Linker V03.00/V05.40 + sdld,  page 92.
Hexadecimal  [32-Bits]

Area                                    Addr        Size        Decimal Bytes (Attributes)
--------------------------------        ----        ----        ------- ----- ------------
_CODE                               00000200    0000601F =       24607. bytes (REL,CON)

      Value  Global                              Global Defined In Module
      -----  --------------------------------   ------------------------
     0000466E  FBestiary$__str_53$0_0$0           Bestiary
     0000467C  FBestiary$__str_54$0_0$0           Bestiary
     0000468D  FBestiary$__str_55$0_0$0           Bestiary
     00004699  FBestiary$__str_56$0_0$0           Bestiary
     000046A9  FBestiary$__str_57$0_0$0           Bestiary
     000046B7  FBestiary$__str_58$0_0$0           Bestiary
     000046C8  FBestiary$__str_59$0_0$0           Bestiary
     000046DC  G$FontTiles$0_0$0                  Font
     000046DC  _FontTiles                         Font
     00004A3C  G$GypsyTiles$0_0$0                 Gypsy_Tiles
     00004A3C  _GypsyTiles                        Gypsy_Tiles
     00004C2C  G$Gypsy_Map$0_0$0                  Gypsy_Map
     00004C2C  _Gypsy_Map                         Gypsy_Map
     00004C56  G$Skateboard_Tiles$0_0$0           Skateboard_Tiles
     00004C56  _Skateboard_Tiles                  Skateboard_Tiles
     00004D66  G$Cop_Tiles$0_0$0                  Cop_Tiles
     00004D66  _Cop_Tiles                         Cop_Tiles
     00004FF6  G$Officer_Map$0_0$0                Officer_Map
     00004FF6  _Officer_Map                       Officer_Map
     00005020  G$Police_Map$0_0$0                 Police_Map
     00005020  _Police_Map                        Police_Map
     0000504A  G$Sheriff_Map$0_0$0                Sheriff_Map
     0000504A  _Sheriff_Map                       Sheriff_Map
     00005074  G$Chief_Map$0_0$0                  Chief_Map
     00005074  _Chief_Map                         Chief_Map
     0000509E  G$Tick_Tiles$0_0$0                 Tick_Tiles
     0000509E  _Tick_Tiles                        Tick_Tiles
     000051EE  G$Man_Tiles$0_0$0                  Man_Tiles
     000051EE  _Man_Tiles                         Man_Tiles
     000053DE  G$Sis_Tiles$0_0$0                  Sis_Tiles
     000053DE  _Sis_Tiles                         Sis_Tiles
     000055DE  G$BigSis_Map$0_0$0                 BigSis_Map
     000055DE  _BigSis_Map                        BigSis_Map
     00005601  G$MadSis_Map$0_0$0                 MadSis_Map
     00005601  _MadSis_Map                        MadSis_Map
     00005624  G$Car_Tiles$0_0$0                  Car_Tiles
     00005624  _Car_Tiles                         Car_Tiles
     000057D4  G$Car_Map$0_0$0                    Car_Map
     000057D4  _Car_Map                           Car_Map
     000057F2  G$Semi_Tiles$0_0$0                 Semi_Tiles
     000057F2  _Semi_Tiles                        Semi_Tiles
     00005AE2  G$Semi_Map$0_0$0                   Semi_Map
     00005AE2  _Semi_Map                          Semi_Map
     00005B12  A$Battle$65                        Battle
     00005B12  C$Battle.c$50$0_0$137              Battle
     00005B12  G$BattleSetup$0$0                  Battle
     00005B12  _BattleSetup                       Battle
     00005B13  A$Battle$66                        Battle
     00005B15  A$Battle$67                        Battle
     00005B16  A$Battle$68                        Battle
     00005B18  A$Battle$72                        Battle
ASxxxx Linker V03.00/V05.40 + sdld,  page 93.
Hexadecimal  [32-Bits]

Area                                    Addr        Size        Decimal Bytes (Attributes)
--------------------------------        ----        ----        ------- ----- ------------
_CODE                               00000200    0000601F =       24607. bytes (REL,CON)

      Value  Global                              Global Defined In Module
      -----  --------------------------------   ------------------------
     00005B18  C$Battle.c$53$1_0$137              Battle
     00005B1B  A$Battle$73                        Battle
     00005B1C  A$Battle$74                        Battle
     00005B1F  A$Battle$75                        Battle
     00005B20  A$Battle$76                        Battle
     00005B23  A$Battle$77                        Battle
     00005B25  A$Battle$81                        Battle
     00005B25  C$Battle.c$54$1_0$137              Battle
     00005B28  A$Battle$82                        Battle
     00005B29  A$Battle$83                        Battle
     00005B2C  A$Battle$84                        Battle
     00005B2D  A$Battle$85                        Battle
     00005B2E  A$Battle$86                        Battle
     00005B2F  A$Battle$87                        Battle
     00005B30  A$Battle$88                        Battle
     00005B33  A$Battle$89                        Battle
     00005B35  A$Battle$93                        Battle
     00005B35  C$Battle.c$56$1_0$137              Battle
     00005B38  A$Battle$94                        Battle
     00005B39  A$Battle$95                        Battle
     00005B3C  A$Battle$96                        Battle
     00005B3D  A$Battle$97                        Battle
     00005B3F  A$Battle$98                        Battle
     00005B41  A$Battle$99                        Battle
     00005B44  A$Battle$103                       Battle
     00005B44  C$Battle.c$57$1_0$137              Battle
     00005B47  A$Battle$104                       Battle
     00005B48  A$Battle$105                       Battle
     00005B4B  A$Battle$106                       Battle
     00005B4C  A$Battle$107                       Battle
     00005B4E  A$Battle$108                       Battle
     00005B50  A$Battle$109                       Battle
     00005B53  A$Battle$113                       Battle
     00005B53  C$Battle.c$58$1_0$137              Battle
     00005B56  A$Battle$114                       Battle
     00005B57  A$Battle$115                       Battle
     00005B5A  A$Battle$116                       Battle
     00005B5B  A$Battle$117                       Battle
     00005B5D  A$Battle$118                       Battle
     00005B5F  A$Battle$119                       Battle
     00005B62  A$Battle$123                       Battle
     00005B62  C$Battle.c$59$1_0$137              Battle
     00005B65  A$Battle$124                       Battle
     00005B66  A$Battle$125                       Battle
     00005B69  A$Battle$126                       Battle
     00005B6A  A$Battle$127                       Battle
     00005B6C  A$Battle$128                       Battle
     00005B6E  A$Battle$129                       Battle
     00005B71  A$Battle$133                       Battle
     00005B71  C$Battle.c$61$1_0$137              Battle
     00005B74  A$Battle$134                       Battle
ASxxxx Linker V03.00/V05.40 + sdld,  page 94.
Hexadecimal  [32-Bits]

Area                                    Addr        Size        Decimal Bytes (Attributes)
--------------------------------        ----        ----        ------- ----- ------------
_CODE                               00000200    0000601F =       24607. bytes (REL,CON)

      Value  Global                              Global Defined In Module
      -----  --------------------------------   ------------------------
     00005B75  A$Battle$135                       Battle
     00005B78  A$Battle$136                       Battle
     00005B79  A$Battle$137                       Battle
     00005B7B  A$Battle$138                       Battle
     00005B7D  A$Battle$139                       Battle
     00005B80  A$Battle$143                       Battle
     00005B80  C$Battle.c$62$1_0$137              Battle
     00005B83  A$Battle$144                       Battle
     00005B84  A$Battle$145                       Battle
     00005B87  A$Battle$146                       Battle
     00005B88  A$Battle$147                       Battle
     00005B8A  A$Battle$148                       Battle
     00005B8C  A$Battle$149                       Battle
     00005B8F  A$Battle$153                       Battle
     00005B8F  C$Battle.c$63$1_0$137              Battle
     00005B92  A$Battle$154                       Battle
     00005B93  A$Battle$155                       Battle
     00005B96  A$Battle$156                       Battle
     00005B97  A$Battle$157                       Battle
     00005B99  A$Battle$158                       Battle
     00005B9B  A$Battle$159                       Battle
     00005B9E  A$Battle$163                       Battle
     00005B9E  C$Battle.c$64$1_0$137              Battle
     00005BA1  A$Battle$164                       Battle
     00005BA2  A$Battle$165                       Battle
     00005BA5  A$Battle$166                       Battle
     00005BA6  A$Battle$167                       Battle
     00005BA8  A$Battle$168                       Battle
     00005BAA  A$Battle$169                       Battle
     00005BAD  A$Battle$173                       Battle
     00005BAD  C$Battle.c$67$1_0$137              Battle
     00005BB0  A$Battle$174                       Battle
     00005BB2  A$Battle$178                       Battle
     00005BB2  C$Battle.c$68$1_0$137              Battle
     00005BB5  A$Battle$179                       Battle
     00005BB7  A$Battle$180                       Battle
     00005BB8  A$Battle$182                       Battle
     00005BBB  A$Battle$183                       Battle
     00005BBD  A$Battle$185                       Battle
     00005BBE  A$Battle$186                       Battle
     00005BBF  A$Battle$187                       Battle
     00005BC2  A$Battle$188                       Battle
     00005BC3  A$Battle$190                       Battle
     00005BC6  A$Battle$192                       Battle
     00005BC7  A$Battle$193                       Battle
     00005BC8  A$Battle$194                       Battle
     00005BC9  A$Battle$198                       Battle
     00005BC9  C$Battle.c$73$1_0$137              Battle
     00005BCB  A$Battle$199                       Battle
     00005BCD  A$Battle$200                       Battle
     00005BCF  A$Battle$204                       Battle
ASxxxx Linker V03.00/V05.40 + sdld,  page 95.
Hexadecimal  [32-Bits]

Area                                    Addr        Size        Decimal Bytes (Attributes)
--------------------------------        ----        ----        ------- ----- ------------
_CODE                               00000200    0000601F =       24607. bytes (REL,CON)

      Value  Global                              Global Defined In Module
      -----  --------------------------------   ------------------------
     00005BCF  C$Battle.c$74$1_0$137              Battle
     00005BD1  A$Battle$205                       Battle
     00005BD4  A$Battle$209                       Battle
     00005BD4  C$Battle.c$75$1_0$137              Battle
     00005BD7  A$Battle$210                       Battle
     00005BD8  A$Battle$211                       Battle
     00005BDA  A$Battle$215                       Battle
     00005BDA  C$Battle.c$77$2_0$138              Battle
     00005BDC  A$Battle$216                       Battle
     00005BDD  A$Battle$217                       Battle
     00005BDE  A$Battle$218                       Battle
     00005BE1  A$Battle$219                       Battle
     00005BE2  A$Battle$220                       Battle
     00005BE4  A$Battle$221                       Battle
     00005BE5  A$Battle$222                       Battle
     00005BE8  A$Battle$226                       Battle
     00005BE8  C$Battle.c$78$2_0$138              Battle
     00005BEA  A$Battle$227                       Battle
     00005BEB  A$Battle$228                       Battle
     00005BEC  A$Battle$229                       Battle
     00005BEF  A$Battle$230                       Battle
     00005BF0  A$Battle$231                       Battle
     00005BF2  A$Battle$232                       Battle
     00005BF4  A$Battle$233                       Battle
     00005BF7  A$Battle$237                       Battle
     00005BF7  C$Battle.c$79$2_0$138              Battle
     00005BFA  A$Battle$238                       Battle
     00005BFB  A$Battle$239                       Battle
     00005BFE  A$Battle$240                       Battle
     00005BFF  A$Battle$241                       Battle
     00005C02  A$Battle$242                       Battle
     00005C04  A$Battle$246                       Battle
     00005C04  C$Battle.c$80$2_0$138              Battle
     00005C07  A$Battle$247                       Battle
     00005C08  A$Battle$248                       Battle
     00005C0B  A$Battle$249                       Battle
     00005C0C  A$Battle$250                       Battle
     00005C0F  A$Battle$251                       Battle
     00005C10  A$Battle$252                       Battle
     00005C13  A$Battle$253                       Battle
     00005C15  A$Battle$254                       Battle
     00005C18  A$Battle$259                       Battle
     00005C18  C$Battle.c$82$1_0$137              Battle
     00005C1B  A$Battle$260                       Battle
     00005C1C  A$Battle$261                       Battle
     00005C1E  A$Battle$265                       Battle
     00005C1E  C$Battle.c$84$2_0$139              Battle
     00005C20  A$Battle$266                       Battle
     00005C21  A$Battle$267                       Battle
     00005C22  A$Battle$268                       Battle
     00005C25  A$Battle$269                       Battle
ASxxxx Linker V03.00/V05.40 + sdld,  page 96.
Hexadecimal  [32-Bits]

Area                                    Addr        Size        Decimal Bytes (Attributes)
--------------------------------        ----        ----        ------- ----- ------------
_CODE                               00000200    0000601F =       24607. bytes (REL,CON)

      Value  Global                              Global Defined In Module
      -----  --------------------------------   ------------------------
     00005C26  A$Battle$270                       Battle
     00005C28  A$Battle$271                       Battle
     00005C29  A$Battle$272                       Battle
     00005C2C  A$Battle$276                       Battle
     00005C2C  C$Battle.c$85$2_0$139              Battle
     00005C2E  A$Battle$277                       Battle
     00005C2F  A$Battle$278                       Battle
     00005C30  A$Battle$279                       Battle
     00005C33  A$Battle$280                       Battle
     00005C34  A$Battle$281                       Battle
     00005C36  A$Battle$282                       Battle
     00005C38  A$Battle$283                       Battle
     00005C3B  A$Battle$287                       Battle
     00005C3B  C$Battle.c$86$2_0$139              Battle
     00005C3E  A$Battle$288                       Battle
     00005C3F  A$Battle$289                       Battle
     00005C42  A$Battle$290                       Battle
     00005C43  A$Battle$291                       Battle
     00005C46  A$Battle$292                       Battle
     00005C48  A$Battle$296                       Battle
     00005C48  C$Battle.c$87$2_0$139              Battle
     00005C4B  A$Battle$297                       Battle
     00005C4C  A$Battle$298                       Battle
     00005C4F  A$Battle$299                       Battle
     00005C50  A$Battle$300                       Battle
     00005C53  A$Battle$301                       Battle
     00005C54  A$Battle$302                       Battle
     00005C57  A$Battle$303                       Battle
     00005C59  A$Battle$304                       Battle
     00005C5C  A$Battle$309                       Battle
     00005C5C  C$Battle.c$89$1_0$137              Battle
     00005C5F  A$Battle$310                       Battle
     00005C61  A$Battle$311                       Battle
     00005C63  A$Battle$315                       Battle
     00005C63  C$Battle.c$91$2_0$140              Battle
     00005C65  A$Battle$316                       Battle
     00005C66  A$Battle$317                       Battle
     00005C67  A$Battle$318                       Battle
     00005C6A  A$Battle$319                       Battle
     00005C6B  A$Battle$320                       Battle
     00005C6D  A$Battle$321                       Battle
     00005C6E  A$Battle$322                       Battle
     00005C71  A$Battle$326                       Battle
     00005C71  C$Battle.c$92$2_0$140              Battle
     00005C74  A$Battle$327                       Battle
     00005C75  A$Battle$328                       Battle
     00005C78  A$Battle$329                       Battle
     00005C79  A$Battle$330                       Battle
     00005C7C  A$Battle$331                       Battle
     00005C7E  A$Battle$335                       Battle
     00005C7E  C$Battle.c$93$2_0$140              Battle
ASxxxx Linker V03.00/V05.40 + sdld,  page 97.
Hexadecimal  [32-Bits]

Area                                    Addr        Size        Decimal Bytes (Attributes)
--------------------------------        ----        ----        ------- ----- ------------
_CODE                               00000200    0000601F =       24607. bytes (REL,CON)

      Value  Global                              Global Defined In Module
      -----  --------------------------------   ------------------------
     00005C81  A$Battle$336                       Battle
     00005C82  A$Battle$337                       Battle
     00005C85  A$Battle$338                       Battle
     00005C86  A$Battle$339                       Battle
     00005C89  A$Battle$340                       Battle
     00005C8A  A$Battle$341                       Battle
     00005C8D  A$Battle$342                       Battle
     00005C8F  A$Battle$343                       Battle
     00005C92  A$Battle$348                       Battle
     00005C92  C$Battle.c$95$1_0$137              Battle
     00005C95  A$Battle$349                       Battle
     00005C97  A$Battle$350                       Battle
     00005C99  A$Battle$354                       Battle
     00005C99  C$Battle.c$97$2_0$141              Battle
     00005C9B  A$Battle$355                       Battle
     00005C9C  A$Battle$356                       Battle
     00005C9D  A$Battle$357                       Battle
     00005CA0  A$Battle$358                       Battle
     00005CA1  A$Battle$359                       Battle
     00005CA3  A$Battle$360                       Battle
     00005CA4  A$Battle$361                       Battle
     00005CA7  A$Battle$365                       Battle
     00005CA7  C$Battle.c$98$2_0$141              Battle
     00005CAA  A$Battle$366                       Battle
     00005CAB  A$Battle$367                       Battle
     00005CAE  A$Battle$368                       Battle
     00005CAF  A$Battle$369                       Battle
     00005CB2  A$Battle$370                       Battle
     00005CB4  A$Battle$374                       Battle
     00005CB4  C$Battle.c$99$2_0$141              Battle
     00005CB7  A$Battle$375                       Battle
     00005CB8  A$Battle$376                       Battle
     00005CBB  A$Battle$377                       Battle
     00005CBC  A$Battle$378                       Battle
     00005CBF  A$Battle$379                       Battle
     00005CC0  A$Battle$380                       Battle
     00005CC3  A$Battle$381                       Battle
     00005CC5  A$Battle$382                       Battle
     00005CC8  A$Battle$387                       Battle
     00005CC8  C$Battle.c$101$1_0$137             Battle
     00005CCB  A$Battle$388                       Battle
     00005CCD  A$Battle$389                       Battle
     00005CCF  A$Battle$393                       Battle
     00005CCF  C$Battle.c$103$2_0$142             Battle
     00005CD1  A$Battle$394                       Battle
     00005CD2  A$Battle$395                       Battle
     00005CD3  A$Battle$396                       Battle
     00005CD6  A$Battle$397                       Battle
     00005CD7  A$Battle$398                       Battle
     00005CD9  A$Battle$399                       Battle
     00005CDA  A$Battle$400                       Battle
ASxxxx Linker V03.00/V05.40 + sdld,  page 98.
Hexadecimal  [32-Bits]

Area                                    Addr        Size        Decimal Bytes (Attributes)
--------------------------------        ----        ----        ------- ----- ------------
_CODE                               00000200    0000601F =       24607. bytes (REL,CON)

      Value  Global                              Global Defined In Module
      -----  --------------------------------   ------------------------
     00005CDD  A$Battle$404                       Battle
     00005CDD  C$Battle.c$104$2_0$142             Battle
     00005CDF  A$Battle$405                       Battle
     00005CE0  A$Battle$406                       Battle
     00005CE1  A$Battle$407                       Battle
     00005CE4  A$Battle$408                       Battle
     00005CE5  A$Battle$409                       Battle
     00005CE7  A$Battle$410                       Battle
     00005CE9  A$Battle$411                       Battle
     00005CEC  A$Battle$415                       Battle
     00005CEC  C$Battle.c$105$2_0$142             Battle
     00005CEF  A$Battle$416                       Battle
     00005CF0  A$Battle$417                       Battle
     00005CF3  A$Battle$418                       Battle
     00005CF4  A$Battle$419                       Battle
     00005CF7  A$Battle$420                       Battle
     00005CF9  A$Battle$424                       Battle
     00005CF9  C$Battle.c$106$2_0$142             Battle
     00005CFC  A$Battle$425                       Battle
     00005CFD  A$Battle$426                       Battle
     00005D00  A$Battle$427                       Battle
     00005D01  A$Battle$428                       Battle
     00005D04  A$Battle$429                       Battle
     00005D05  A$Battle$430                       Battle
     00005D08  A$Battle$431                       Battle
     00005D0A  A$Battle$432                       Battle
     00005D0D  A$Battle$437                       Battle
     00005D0D  C$Battle.c$108$1_0$137             Battle
     00005D10  A$Battle$438                       Battle
     00005D12  A$Battle$439                       Battle
     00005D14  A$Battle$443                       Battle
     00005D14  C$Battle.c$110$2_0$143             Battle
     00005D17  A$Battle$444                       Battle
     00005D18  A$Battle$445                       Battle
     00005D1B  A$Battle$446                       Battle
     00005D1C  A$Battle$447                       Battle
     00005D1F  A$Battle$448                       Battle
     00005D21  A$Battle$452                       Battle
     00005D21  C$Battle.c$111$2_0$143             Battle
     00005D24  A$Battle$453                       Battle
     00005D25  A$Battle$454                       Battle
     00005D28  A$Battle$455                       Battle
     00005D29  A$Battle$456                       Battle
     00005D2C  A$Battle$457                       Battle
     00005D2D  A$Battle$458                       Battle
     00005D30  A$Battle$459                       Battle
     00005D32  A$Battle$460                       Battle
     00005D35  A$Battle$465                       Battle
     00005D35  C$Battle.c$113$1_0$137             Battle
     00005D38  A$Battle$466                       Battle
     00005D3A  A$Battle$467                       Battle
ASxxxx Linker V03.00/V05.40 + sdld,  page 99.
Hexadecimal  [32-Bits]

Area                                    Addr        Size        Decimal Bytes (Attributes)
--------------------------------        ----        ----        ------- ----- ------------
_CODE                               00000200    0000601F =       24607. bytes (REL,CON)

      Value  Global                              Global Defined In Module
      -----  --------------------------------   ------------------------
     00005D3C  A$Battle$471                       Battle
     00005D3C  C$Battle.c$115$2_0$144             Battle
     00005D3F  A$Battle$472                       Battle
     00005D40  A$Battle$473                       Battle
     00005D43  A$Battle$474                       Battle
     00005D44  A$Battle$475                       Battle
     00005D47  A$Battle$476                       Battle
     00005D49  A$Battle$480                       Battle
     00005D49  C$Battle.c$116$2_0$144             Battle
     00005D4C  A$Battle$481                       Battle
     00005D4D  A$Battle$482                       Battle
     00005D50  A$Battle$483                       Battle
     00005D51  A$Battle$484                       Battle
     00005D54  A$Battle$485                       Battle
     00005D55  A$Battle$486                       Battle
     00005D58  A$Battle$487                       Battle
     00005D5A  A$Battle$488                       Battle
     00005D5D  A$Battle$493                       Battle
     00005D5D  C$Battle.c$118$1_0$137             Battle
     00005D60  A$Battle$494                       Battle
     00005D62  A$Battle$495                       Battle
     00005D64  A$Battle$499                       Battle
     00005D64  C$Battle.c$120$2_0$145             Battle
     00005D67  A$Battle$500                       Battle
     00005D68  A$Battle$501                       Battle
     00005D6B  A$Battle$502                       Battle
     00005D6C  A$Battle$503                       Battle
     00005D6F  A$Battle$504                       Battle
     00005D71  A$Battle$508                       Battle
     00005D71  C$Battle.c$121$2_0$145             Battle
     00005D74  A$Battle$509                       Battle
     00005D75  A$Battle$510                       Battle
     00005D78  A$Battle$511                       Battle
     00005D79  A$Battle$512                       Battle
     00005D7C  A$Battle$513                       Battle
     00005D7D  A$Battle$514                       Battle
     00005D80  A$Battle$515                       Battle
     00005D82  A$Battle$516                       Battle
     00005D85  A$Battle$521                       Battle
     00005D85  C$Battle.c$123$1_0$137             Battle
     00005D88  A$Battle$522                       Battle
     00005D8A  A$Battle$523                       Battle
     00005D8C  A$Battle$527                       Battle
     00005D8C  C$Battle.c$125$2_0$146             Battle
     00005D8F  A$Battle$531                       Battle
     00005D8F  C$Battle.c$126$2_0$146             Battle
     00005D92  A$Battle$532                       Battle
     00005D93  A$Battle$533                       Battle
     00005D96  A$Battle$534                       Battle
     00005D97  A$Battle$535                       Battle
     00005D9A  A$Battle$536                       Battle
ASxxxx Linker V03.00/V05.40 + sdld,  page 100.
Hexadecimal  [32-Bits]

Area                                    Addr        Size        Decimal Bytes (Attributes)
--------------------------------        ----        ----        ------- ----- ------------
_CODE                               00000200    0000601F =       24607. bytes (REL,CON)

      Value  Global                              Global Defined In Module
      -----  --------------------------------   ------------------------
     00005D9C  A$Battle$540                       Battle
     00005D9C  C$Battle.c$127$2_0$146             Battle
     00005D9F  A$Battle$541                       Battle
     00005DA0  A$Battle$542                       Battle
     00005DA3  A$Battle$543                       Battle
     00005DA4  A$Battle$544                       Battle
     00005DA7  A$Battle$545                       Battle
     00005DA8  A$Battle$546                       Battle
     00005DAB  A$Battle$547                       Battle
     00005DAD  A$Battle$548                       Battle
     00005DB0  A$Battle$553                       Battle
     00005DB0  C$Battle.c$129$1_0$137             Battle
     00005DB3  A$Battle$554                       Battle
     00005DB5  A$Battle$555                       Battle
     00005DB7  A$Battle$559                       Battle
     00005DB7  C$Battle.c$131$2_0$147             Battle
     00005DBA  A$Battle$560                       Battle
     00005DBB  A$Battle$561                       Battle
     00005DBE  A$Battle$562                       Battle
     00005DBF  A$Battle$563                       Battle
     00005DC2  A$Battle$564                       Battle
     00005DC4  A$Battle$568                       Battle
     00005DC4  C$Battle.c$132$2_0$147             Battle
     00005DC7  A$Battle$569                       Battle
     00005DC8  A$Battle$570                       Battle
     00005DCB  A$Battle$571                       Battle
     00005DCC  A$Battle$572                       Battle
     00005DCF  A$Battle$573                       Battle
     00005DD0  A$Battle$574                       Battle
     00005DD3  A$Battle$575                       Battle
     00005DD5  A$Battle$576                       Battle
     00005DD8  A$Battle$581                       Battle
     00005DD8  C$Battle.c$134$1_0$137             Battle
     00005DDB  A$Battle$582                       Battle
     00005DDD  A$Battle$583                       Battle
     00005DDF  A$Battle$587                       Battle
     00005DDF  C$Battle.c$136$2_0$148             Battle
     00005DE2  A$Battle$588                       Battle
     00005DE3  A$Battle$589                       Battle
     00005DE6  A$Battle$590                       Battle
     00005DE7  A$Battle$591                       Battle
     00005DEA  A$Battle$592                       Battle
     00005DEC  A$Battle$596                       Battle
     00005DEC  C$Battle.c$137$2_0$148             Battle
     00005DEF  A$Battle$597                       Battle
     00005DF0  A$Battle$598                       Battle
     00005DF3  A$Battle$599                       Battle
     00005DF4  A$Battle$600                       Battle
     00005DF7  A$Battle$601                       Battle
     00005DF8  A$Battle$602                       Battle
     00005DFB  A$Battle$603                       Battle
ASxxxx Linker V03.00/V05.40 + sdld,  page 101.
Hexadecimal  [32-Bits]

Area                                    Addr        Size        Decimal Bytes (Attributes)
--------------------------------        ----        ----        ------- ----- ------------
_CODE                               00000200    0000601F =       24607. bytes (REL,CON)

      Value  Global                              Global Defined In Module
      -----  --------------------------------   ------------------------
     00005DFD  A$Battle$604                       Battle
     00005E00  A$Battle$609                       Battle
     00005E00  C$Battle.c$139$1_0$137             Battle
     00005E03  A$Battle$610                       Battle
     00005E05  A$Battle$611                       Battle
     00005E07  A$Battle$615                       Battle
     00005E07  C$Battle.c$141$2_0$149             Battle
     00005E0A  A$Battle$616                       Battle
     00005E0B  A$Battle$617                       Battle
     00005E0E  A$Battle$618                       Battle
     00005E0F  A$Battle$619                       Battle
     00005E12  A$Battle$620                       Battle
     00005E14  A$Battle$624                       Battle
     00005E14  C$Battle.c$142$2_0$149             Battle
     00005E17  A$Battle$625                       Battle
     00005E18  A$Battle$626                       Battle
     00005E1B  A$Battle$627                       Battle
     00005E1C  A$Battle$628                       Battle
     00005E1F  A$Battle$629                       Battle
     00005E20  A$Battle$630                       Battle
     00005E23  A$Battle$631                       Battle
     00005E25  A$Battle$632                       Battle
     00005E28  A$Battle$637                       Battle
     00005E28  C$Battle.c$144$1_0$137             Battle
     00005E2B  A$Battle$638                       Battle
     00005E2D  A$Battle$639                       Battle
     00005E2F  A$Battle$643                       Battle
     00005E2F  C$Battle.c$146$2_0$150             Battle
     00005E32  A$Battle$644                       Battle
     00005E33  A$Battle$645                       Battle
     00005E36  A$Battle$646                       Battle
     00005E37  A$Battle$647                       Battle
     00005E3A  A$Battle$648                       Battle
     00005E3C  A$Battle$652                       Battle
     00005E3C  C$Battle.c$147$2_0$150             Battle
     00005E3F  A$Battle$653                       Battle
     00005E40  A$Battle$654                       Battle
     00005E43  A$Battle$655                       Battle
     00005E44  A$Battle$656                       Battle
     00005E47  A$Battle$657                       Battle
     00005E48  A$Battle$658                       Battle
     00005E4B  A$Battle$659                       Battle
     00005E4D  A$Battle$660                       Battle
     00005E50  A$Battle$665                       Battle
     00005E50  C$Battle.c$149$1_0$137             Battle
     00005E53  A$Battle$666                       Battle
     00005E55  A$Battle$667                       Battle
     00005E57  A$Battle$671                       Battle
     00005E57  C$Battle.c$151$2_0$151             Battle
     00005E5A  A$Battle$672                       Battle
     00005E5B  A$Battle$673                       Battle
ASxxxx Linker V03.00/V05.40 + sdld,  page 102.
Hexadecimal  [32-Bits]

Area                                    Addr        Size        Decimal Bytes (Attributes)
--------------------------------        ----        ----        ------- ----- ------------
_CODE                               00000200    0000601F =       24607. bytes (REL,CON)

      Value  Global                              Global Defined In Module
      -----  --------------------------------   ------------------------
     00005E5E  A$Battle$674                       Battle
     00005E5F  A$Battle$675                       Battle
     00005E62  A$Battle$676                       Battle
     00005E64  A$Battle$680                       Battle
     00005E64  C$Battle.c$152$2_0$151             Battle
     00005E67  A$Battle$681                       Battle
     00005E68  A$Battle$682                       Battle
     00005E6B  A$Battle$683                       Battle
     00005E6C  A$Battle$684                       Battle
     00005E6F  A$Battle$685                       Battle
     00005E70  A$Battle$686                       Battle
     00005E73  A$Battle$687                       Battle
     00005E75  A$Battle$688                       Battle
     00005E78  A$Battle$693                       Battle
     00005E78  C$Battle.c$154$1_0$137             Battle
     00005E7B  A$Battle$694                       Battle
     00005E7D  A$Battle$695                       Battle
     00005E7F  A$Battle$699                       Battle
     00005E7F  C$Battle.c$156$2_0$152             Battle
     00005E82  A$Battle$700                       Battle
     00005E83  A$Battle$701                       Battle
     00005E86  A$Battle$702                       Battle
     00005E87  A$Battle$703                       Battle
     00005E8A  A$Battle$704                       Battle
     00005E8C  A$Battle$708                       Battle
     00005E8C  C$Battle.c$157$2_0$152             Battle
     00005E8F  A$Battle$709                       Battle
     00005E90  A$Battle$710                       Battle
     00005E93  A$Battle$711                       Battle
     00005E94  A$Battle$712                       Battle
     00005E97  A$Battle$713                       Battle
     00005E98  A$Battle$714                       Battle
     00005E9B  A$Battle$715                       Battle
     00005E9D  A$Battle$716                       Battle
     00005EA0  A$Battle$721                       Battle
     00005EA0  C$Battle.c$159$1_0$137             Battle
     00005EA3  A$Battle$722                       Battle
     00005EA5  A$Battle$723                       Battle
     00005EA7  A$Battle$727                       Battle
     00005EA7  C$Battle.c$161$2_0$153             Battle
     00005EAA  A$Battle$728                       Battle
     00005EAB  A$Battle$729                       Battle
     00005EAE  A$Battle$730                       Battle
     00005EAF  A$Battle$731                       Battle
     00005EB2  A$Battle$732                       Battle
     00005EB4  A$Battle$736                       Battle
     00005EB4  C$Battle.c$162$2_0$153             Battle
     00005EB7  A$Battle$737                       Battle
     00005EB8  A$Battle$738                       Battle
     00005EBB  A$Battle$739                       Battle
     00005EBC  A$Battle$740                       Battle
ASxxxx Linker V03.00/V05.40 + sdld,  page 103.
Hexadecimal  [32-Bits]

Area                                    Addr        Size        Decimal Bytes (Attributes)
--------------------------------        ----        ----        ------- ----- ------------
_CODE                               00000200    0000601F =       24607. bytes (REL,CON)

      Value  Global                              Global Defined In Module
      -----  --------------------------------   ------------------------
     00005EBF  A$Battle$741                       Battle
     00005EC0  A$Battle$742                       Battle
     00005EC3  A$Battle$743                       Battle
     00005EC5  A$Battle$744                       Battle
     00005EC7  A$Battle$749                       Battle
     00005EC7  C$Battle.c$164$1_0$137             Battle
     00005ECA  A$Battle$750                       Battle
     00005ECC  A$Battle$751                       Battle
     00005ECE  A$Battle$755                       Battle
     00005ECE  C$Battle.c$166$2_0$154             Battle
     00005ED1  A$Battle$756                       Battle
     00005ED2  A$Battle$757                       Battle
     00005ED5  A$Battle$758                       Battle
     00005ED6  A$Battle$759                       Battle
     00005ED9  A$Battle$760                       Battle
     00005EDB  A$Battle$764                       Battle
     00005EDB  C$Battle.c$167$2_0$154             Battle
     00005EDE  A$Battle$765                       Battle
     00005EDF  A$Battle$766                       Battle
     00005EE2  A$Battle$767                       Battle
     00005EE3  A$Battle$768                       Battle
     00005EE6  A$Battle$769                       Battle
     00005EE7  A$Battle$770                       Battle
     00005EEA  A$Battle$771                       Battle
     00005EEC  A$Battle$772                       Battle
     00005EEE  A$Battle$777                       Battle
     00005EEE  C$Battle.c$169$1_0$137             Battle
     00005EF1  A$Battle$778                       Battle
     00005EF3  A$Battle$779                       Battle
     00005EF5  A$Battle$783                       Battle
     00005EF5  C$Battle.c$171$2_0$155             Battle
     00005EF8  A$Battle$784                       Battle
     00005EF9  A$Battle$785                       Battle
     00005EFC  A$Battle$786                       Battle
     00005EFD  A$Battle$787                       Battle
     00005F00  A$Battle$788                       Battle
     00005F02  A$Battle$792                       Battle
     00005F02  C$Battle.c$172$2_0$155             Battle
     00005F05  A$Battle$793                       Battle
     00005F06  A$Battle$794                       Battle
     00005F09  A$Battle$795                       Battle
     00005F0A  A$Battle$796                       Battle
     00005F0D  A$Battle$797                       Battle
     00005F0E  A$Battle$798                       Battle
     00005F11  A$Battle$799                       Battle
     00005F13  A$Battle$800                       Battle
     00005F15  A$Battle$805                       Battle
     00005F15  C$Battle.c$174$1_0$137             Battle
     00005F18  A$Battle$806                       Battle
     00005F1A  A$Battle$807                       Battle
     00005F1C  A$Battle$811                       Battle
ASxxxx Linker V03.00/V05.40 + sdld,  page 104.
Hexadecimal  [32-Bits]

Area                                    Addr        Size        Decimal Bytes (Attributes)
--------------------------------        ----        ----        ------- ----- ------------
_CODE                               00000200    0000601F =       24607. bytes (REL,CON)

      Value  Global                              Global Defined In Module
      -----  --------------------------------   ------------------------
     00005F1C  C$Battle.c$176$2_0$156             Battle
     00005F1F  A$Battle$812                       Battle
     00005F20  A$Battle$813                       Battle
     00005F23  A$Battle$814                       Battle
     00005F24  A$Battle$815                       Battle
     00005F27  A$Battle$816                       Battle
     00005F29  A$Battle$820                       Battle
     00005F29  C$Battle.c$177$2_0$156             Battle
     00005F2C  A$Battle$821                       Battle
     00005F2D  A$Battle$822                       Battle
     00005F30  A$Battle$823                       Battle
     00005F31  A$Battle$824                       Battle
     00005F34  A$Battle$825                       Battle
     00005F35  A$Battle$826                       Battle
     00005F38  A$Battle$827                       Battle
     00005F3A  A$Battle$832                       Battle
     00005F3A  C$Battle.c$179$1_0$137             Battle
     00005F3C  A$Battle$833                       Battle
     00005F3F  A$Battle$835                       Battle
     00005F41  A$Battle$836                       Battle
     00005F43  A$Battle$837                       Battle
     00005F45  A$Battle$848                       Battle
     00005F45  C$Battle.c$180$3_0$137             Battle
     00005F45  C$Battle.c$182$3_0$137             Battle
     00005F45  XG$BattleSetup$0$0                 Battle
     00005F46  FBattle$__str_0$0_0$0              Battle
     00005F55  FBattle$__str_1$0_0$0              Battle
     00005F5B  FBattle$__str_2$0_0$0              Battle
     00005F6C  FBattle$__str_3$0_0$0              Battle
     00005F7C  FBattle$__str_4$0_0$0              Battle
     00005F8F  FBattle$__str_5$0_0$0              Battle
     00005FA0  A$Battle$885                       Battle
     00005FA0  C$Battle.c$184$3_0$170             Battle
     00005FA0  C$Battle.c$186$1_0$170             Battle
     00005FA0  G$BattleUpdate$0$0                 Battle
     00005FA0  _BattleUpdate                      Battle
     00005FA3  A$Battle$886                       Battle
     00005FA5  A$Battle$887                       Battle
     00005FA7  A$Battle$891                       Battle
     00005FA7  C$Battle.c$188$2_0$171             Battle
     00005FA9  A$Battle$892                       Battle
     00005FAA  A$Battle$897                       Battle
     00005FAA  C$Battle.c$190$1_0$170             Battle
     00005FAC  A$Battle$898                       Battle
     00005FAE  A$Battle$899                       Battle
     00005FAF  A$Battle$900                       Battle
     00005FB1  A$Battle$904                       Battle
     00005FB1  C$Battle.c$192$2_0$172             Battle
     00005FB4  A$Battle$905                       Battle
     00005FB5  A$Battle$906                       Battle
     00005FB6  A$Battle$910                       Battle
ASxxxx Linker V03.00/V05.40 + sdld,  page 105.
Hexadecimal  [32-Bits]

Area                                    Addr        Size        Decimal Bytes (Attributes)
--------------------------------        ----        ----        ------- ----- ------------
_CODE                               00000200    0000601F =       24607. bytes (REL,CON)

      Value  Global                              Global Defined In Module
      -----  --------------------------------   ------------------------
     00005FB6  C$Battle.c$193$2_0$172             Battle
     00005FB9  A$Battle$911                       Battle
     00005FBA  A$Battle$912                       Battle
     00005FBC  A$Battle$913                       Battle
     00005FBD  A$Battle$915                       Battle
     00005FBE  A$Battle$916                       Battle
     00005FC1  A$Battle$917                       Battle
     00005FC2  A$Battle$919                       Battle
     00005FC5  A$Battle$921                       Battle
     00005FC6  A$Battle$922                       Battle
     00005FC7  A$Battle$923                       Battle
     00005FC8  A$Battle$927                       Battle
     00005FC8  C$Battle.c$195$2_0$172             Battle
     00005FCA  A$Battle$928                       Battle
     00005FCB  A$Battle$933                       Battle
     00005FCB  C$Battle.c$199$2_0$173             Battle
     00005FCD  A$Battle$941                       Battle
     00005FCD  C$Battle.c$201$1_0$170             Battle
     00005FCD  XG$BattleUpdate$0$0                Battle
     00005FCE  _set_vram_byte                     
     00005FD7  _set_win_tile_xy                   
     00005FE0  _set_bkg_tile_xy                   
     0000600F  _get_win_xy_addr                   
     00006017  _get_bkg_xy_addr                   
     00006036  ___move_metasprite                 Metasprites
     00006073  ___move_metasprite_flipy           Metasprites
     00006073  ___move_metasprite_hflip           Metasprites
     000060B4  ___move_metasprite_flipx           Metasprites
     000060B4  ___move_metasprite_vflip           Metasprites
     000060F5  ___move_metasprite_flipxy          Metasprites
     000060F5  ___move_metasprite_hvflip          Metasprites
     00006138  __divsuchar                        divmod
     0000613E  __modsuchar                        divmod
     00006147  __divuschar                        divmod
     00006150  __moduschar                        divmod
     0000615C  __divschar                         divmod
     00006161  __modschar                         divmod
     00006168  __divsint                          divmod
     00006171  __modsint                          divmod
     0000617D  __divuchar                         divmod
     00006182  __moduchar                         divmod
     00006189  __divuint                          divmod
     00006192  __moduint                          divmod
     0000619E  .div8                              divmod
     0000619E  .mod8                              divmod
     000061A6  .div16                             divmod
     000061A6  .mod16                             divmod
     000061DC  .divu8                             divmod
     000061DC  .modu8                             divmod
     000061DF  .divu16                            divmod
     000061DF  .modu16                            divmod

ASxxxx Linker V03.00/V05.40 + sdld,  page 106.
Hexadecimal  [32-Bits]

Area                                    Addr        Size        Decimal Bytes (Attributes)
--------------------------------        ----        ----        ------- ----- ------------
_HEADER0                            00000000    00000001 =           1. bytes (ABS,CON)

      Value  Global                              Global Defined In Module
      -----  --------------------------------   ------------------------
     00000020  .call_hl                           Runtime

ASxxxx Linker V03.00/V05.40 + sdld,  page 107.
Hexadecimal  [32-Bits]

Area                                    Addr        Size        Decimal Bytes (Attributes)
--------------------------------        ----        ----        ------- ----- ------------
_HEADER1                            00000000    00000005 =           5. bytes (ABS,CON)

      Value  Global                              Global Defined In Module
      -----  --------------------------------   ------------------------
     00000028  .MemsetSmall                       Runtime

ASxxxx Linker V03.00/V05.40 + sdld,  page 108.
Hexadecimal  [32-Bits]

Area                                    Addr        Size        Decimal Bytes (Attributes)
--------------------------------        ----        ----        ------- ----- ------------
_HEADER2                            00000000    00000007 =           7. bytes (ABS,CON)

      Value  Global                              Global Defined In Module
      -----  --------------------------------   ------------------------
     00000030  .MemcpySmall                       Runtime

ASxxxx Linker V03.00/V05.40 + sdld,  page 109.
Hexadecimal  [32-Bits]

Area                                    Addr        Size        Decimal Bytes (Attributes)
--------------------------------        ----        ----        ------- ----- ------------
_HEADER3                            00000000    00000008 =           8. bytes (ABS,CON)

      Value  Global                              Global Defined In Module
      -----  --------------------------------   ------------------------
ASxxxx Linker V03.00/V05.40 + sdld,  page 110.
Hexadecimal  [32-Bits]

Area                                    Addr        Size        Decimal Bytes (Attributes)
--------------------------------        ----        ----        ------- ----- ------------
_HEADER4                            00000000    00000060 =          96. bytes (ABS,CON)

      Value  Global                              Global Defined In Module
      -----  --------------------------------   ------------------------
     00000080  .int                               Runtime
     0000008F  _wait_int_handler                  Runtime
     0000009C  __standard_VBL_handler             Runtime
     000000AB  _refresh_OAM                       Runtime
     000000CC  _set_interrupts                    Runtime

ASxxxx Linker V03.00/V05.40 + sdld,  page 111.
Hexadecimal  [32-Bits]

Area                                    Addr        Size        Decimal Bytes (Attributes)
--------------------------------        ----        ----        ------- ----- ------------
_HEADER5                            00000000    00000001 =           1. bytes (ABS,CON)

      Value  Global                              Global Defined In Module
      -----  --------------------------------   ------------------------
ASxxxx Linker V03.00/V05.40 + sdld,  page 112.
Hexadecimal  [32-Bits]

Area                                    Addr        Size        Decimal Bytes (Attributes)
--------------------------------        ----        ----        ------- ----- ------------
_HEADER6                            00000000    00000002 =           2. bytes (ABS,CON)

      Value  Global                              Global Defined In Module
      -----  --------------------------------   ------------------------
ASxxxx Linker V03.00/V05.40 + sdld,  page 113.
Hexadecimal  [32-Bits]

Area                                    Addr        Size        Decimal Bytes (Attributes)
--------------------------------        ----        ----        ------- ----- ------------
_HEADER7                            00000000    00000030 =          48. bytes (ABS,CON)

      Value  Global                              Global Defined In Module
      -----  --------------------------------   ------------------------
ASxxxx Linker V03.00/V05.40 + sdld,  page 114.
Hexadecimal  [32-Bits]

Area                                    Addr        Size        Decimal Bytes (Attributes)
--------------------------------        ----        ----        ------- ----- ------------
_HEADER8                            00000000    00000006 =           6. bytes (ABS,CON)

      Value  Global                              Global Defined In Module
      -----  --------------------------------   ------------------------
ASxxxx Linker V03.00/V05.40 + sdld,  page 115.
Hexadecimal  [32-Bits]

Area                                    Addr        Size        Decimal Bytes (Attributes)
--------------------------------        ----        ----        ------- ----- ------------
_HEADER9                            00000000    00000003 =           3. bytes (ABS,CON)

      Value  Global                              Global Defined In Module
      -----  --------------------------------   ------------------------
ASxxxx Linker V03.00/V05.40 + sdld,  page 116.
Hexadecimal  [32-Bits]

Area                                    Addr        Size        Decimal Bytes (Attributes)
--------------------------------        ----        ----        ------- ----- ------------
_HEADERa                            00000000    00000001 =           1. bytes (ABS,CON)

      Value  Global                              Global Defined In Module
      -----  --------------------------------   ------------------------
ASxxxx Linker V03.00/V05.40 + sdld,  page 117.
Hexadecimal  [32-Bits]

Area                                    Addr        Size        Decimal Bytes (Attributes)
--------------------------------        ----        ----        ------- ----- ------------
_HEADERb                            00000000    00000001 =           1. bytes (ABS,CON)

      Value  Global                              Global Defined In Module
      -----  --------------------------------   ------------------------
ASxxxx Linker V03.00/V05.40 + sdld,  page 118.
Hexadecimal  [32-Bits]

Area                                    Addr        Size        Decimal Bytes (Attributes)
--------------------------------        ----        ----        ------- ----- ------------
_HEADERc                            00000000    00000001 =           1. bytes (ABS,CON)

      Value  Global                              Global Defined In Module
      -----  --------------------------------   ------------------------
ASxxxx Linker V03.00/V05.40 + sdld,  page 119.
Hexadecimal  [32-Bits]

Area                                    Addr        Size        Decimal Bytes (Attributes)
--------------------------------        ----        ----        ------- ----- ------------
_HEADERd                            00000000    00000002 =           2. bytes (ABS,CON)

      Value  Global                              Global Defined In Module
      -----  --------------------------------   ------------------------
ASxxxx Linker V03.00/V05.40 + sdld,  page 120.
Hexadecimal  [32-Bits]

Area                                    Addr        Size        Decimal Bytes (Attributes)
--------------------------------        ----        ----        ------- ----- ------------
_HEADERe                            00000000    00000001 =           1. bytes (ABS,CON)

      Value  Global                              Global Defined In Module
      -----  --------------------------------   ------------------------
ASxxxx Linker V03.00/V05.40 + sdld,  page 121.
Hexadecimal  [32-Bits]

Area                                    Addr        Size        Decimal Bytes (Attributes)
--------------------------------        ----        ----        ------- ----- ------------
_HEADERf                            00000000    00000001 =           1. bytes (ABS,CON)

      Value  Global                              Global Defined In Module
      -----  --------------------------------   ------------------------
ASxxxx Linker V03.00/V05.40 + sdld,  page 122.
Hexadecimal  [32-Bits]

Area                                    Addr        Size        Decimal Bytes (Attributes)
--------------------------------        ----        ----        ------- ----- ------------
_HEADER10                           00000000    00000002 =           2. bytes (ABS,CON)

      Value  Global                              Global Defined In Module
      -----  --------------------------------   ------------------------
ASxxxx Linker V03.00/V05.40 + sdld,  page 123.
Hexadecimal  [32-Bits]

Area                                    Addr        Size        Decimal Bytes (Attributes)
--------------------------------        ----        ----        ------- ----- ------------
_HEADER11                           00000000    000000AB =         171. bytes (ABS,CON)

      Value  Global                              Global Defined In Module
      -----  --------------------------------   ------------------------
     00000150  .reset                             Runtime
     00000150  _reset                             Runtime
     00000157  .code_start                        Runtime
     000001B9  _exit                              Runtime
     000001BD  .wait_vbl_done                     Runtime
     000001BD  _vsync                             Runtime
     000001BD  _wait_vbl_done                     Runtime
     000001CD  .remove_VBL                        Runtime
     000001CD  _remove_VBL                        Runtime
     000001D0  .remove_int                        Runtime
     000001ED  .add_VBL                           Runtime
     000001ED  _add_VBL                           Runtime
     000001F0  .add_int                           Runtime

ASxxxx Linker V03.00/V05.40 + sdld,  page 124.
Hexadecimal  [32-Bits]

Area                                    Addr        Size        Decimal Bytes (Attributes)
--------------------------------        ----        ----        ------- ----- ------------
_HOME                               0000621F    00000286 =         646. bytes (REL,CON)

      Value  Global                              Global Defined In Module
      -----  --------------------------------   ------------------------
     0000621F  .memset_simple                     Runtime
     00006228  .memcpy_simple                     Runtime
     00006245  .display_off                       Runtime
     00006245  _display_off                       Runtime
     0000625D  _uitoa                             itoa
     0000626C  _itoa                              itoa
     0000627B  .itoa                              itoa
     0000628F  .utoa                              itoa
     00006303  _set_tile_data                     
     00006308  _set_bkg_data                      
     00006308  _set_win_data                      
     00006310  _set_sprite_data                   
     00006340  _set_bkg_submap                    SetTileSubmap
     00006383  .set_xy_win_submap                 SetTileSubmap
     0000638C  .set_xy_bkg_submap                 SetTileSubmap
     0000639B  .set_xy_submap                     SetTileSubmap
     000063E7  .padup                             
     000063E7  _waitpadup                         
     000063F7  .jpad                              
     000063F7  _joypad                            
     0000641F  _waitpad                           
     00006420  .wait_pad                          
     00006427  _strlen                            strlen
     0000642C  .strlen                            strlen
     00006435  _set_bkg_tiles                     
     00006449  .set_xy_wtt                        SetTileMap
     00006452  .set_xy_btt                        SetTileMap
     00006461  .set_xy_tt                         SetTileMap

ASxxxx Linker V03.00/V05.40 + sdld,  page 125.
Hexadecimal  [32-Bits]

Area                                    Addr        Size        Decimal Bytes (Attributes)
--------------------------------        ----        ----        ------- ----- ------------
_INITIALIZER                        000064A5    00001B40 =        6976. bytes (REL,CON)

      Value  Global                              Global Defined In Module
      -----  --------------------------------   ------------------------
     000064A5  Fhome$__xinit_Home$0_0$0           home
     00007147  FGameTitle$__xinit_timer$0_0$0     GameTitle
     00007148  FGameTitle$__xinit_frame$0_0$0     GameTitle
     00007149  Fcommon$__xinit_joypadPrevious$0   common
     0000714A  Fcommon$__xinit_joypadCurrent$0_   common
     0000714B  Fcommon$__xinit_index$0_0$0        common
     0000714C  FCoreGameLoop$__xinit_mouse$0_0$   CoreGameLoop
     00007158  FGameJohnDoe$__xinit_wabble$0_0$   GameJohnDoe
     00007159  FGameJohnDoe$__xinit_invert_b$0_   GameJohnDoe
     0000715A  FGameJohnDoe$__xinit_scanline_of   GameJohnDoe
     0000715C  FBestiary_Map$__xinit_Bestiary_M   Bestiary_Map
     000072C4  FBestiary$__xinit_invert$0_0$0     Bestiary
     000072C5  FWally_Tiles$__xinit_WallyTiles$   Wally_Tiles
     00007485  FWally_Map$__xinit_Wally_Map$0_0   Wally_Map
     000074A3  FTick_Map$__xinit_Tick_Map$0_0$0   Tick_Map
     000074BC  FMan_Map$__xinit_Man_Map$0_0$0     Man_Map
     000074E0  FBattle_Map$__xinit_Battle_Map$0   Battle_Map
     000076AC  FDrunk_Tiles$__xinit_Drunk_Tiles   Drunk_Tiles
     0000783C  FDrunk_Map$__xinit_Drunk_Map$0_0   Drunk_Map
     00007854  FExperiment_Tiles$__xinit_Experi   Experiment_Tiles
     00007A34  FExperiment_Map$__xinit_Experime   Experiment_Map
     00007A57  FGhost_Map$__xinit_Ghost_Map$0_0   Ghost_Map
     00007A6B  FGhost_Tiles$__xinit_Ghost_Tiles   Ghost_Tiles
     00007BAB  FSaucer_Tiles$__xinit_Saucer_Til   Saucer_Tiles
     00007C9B  FSaucer_Map$__xinit_Saucer_Map$0   Saucer_Map
     00007CAA  FSockHead_Map$__xinit_SockHead_M   SockHead_Map
     00007CC6  FSockHead_Tiles$__xinit_SockHead   SockHead_Tiles
     00007E16  FToby_Map$__xinit_Toby_Map$0_0$0   Toby_Map
     00007E32  FToby_Tiles$__xinit_Toby_Tiles$0   Toby_Tiles

ASxxxx Linker V03.00/V05.40 + sdld,  page 126.
Hexadecimal  [32-Bits]

Area                                    Addr        Size        Decimal Bytes (Attributes)
--------------------------------        ----        ----        ------- ----- ------------
_GSINIT                             00007FE5    0000000C =          12. bytes (REL,CON)

      Value  Global                              Global Defined In Module
      -----  --------------------------------   ------------------------
     00007FE5  gsinit                             Runtime

ASxxxx Linker V03.00/V05.40 + sdld,  page 127.
Hexadecimal  [32-Bits]

Area                                    Addr        Size        Decimal Bytes (Attributes)
--------------------------------        ----        ----        ------- ----- ------------
_GSFINAL                            00007FF1    00000001 =           1. bytes (REL,CON)

      Value  Global                              Global Defined In Module
      -----  --------------------------------   ------------------------
ASxxxx Linker V03.00/V05.40 + sdld,  page 128.
Hexadecimal  [32-Bits]

Area                                    Addr        Size        Decimal Bytes (Attributes)
--------------------------------        ----        ----        ------- ----- ------------
_DATA                               0000C0A0    00000029 =          41. bytes (REL,CON)

      Value  Global                              Global Defined In Module
      -----  --------------------------------   ------------------------
     0000C0A0  __cpu                              Runtime
     0000C0A1  __is_GBA                           Runtime
     0000C0A2  .mode                              Runtime
     0000C0A3  .sys_time                          Runtime
     0000C0A3  _sys_time                          Runtime
     0000C0A5  .int_0x40                          Runtime
     0000C0B1  G$camera_x_pixels$0_0$0            CoreGameLoop
     0000C0B1  _camera_x_pixels                   CoreGameLoop
     0000C0B3  G$camera_y_pixels$0_0$0            CoreGameLoop
     0000C0B3  _camera_y_pixels                   CoreGameLoop
     0000C0B5  G$old_camera_x_pixels$0_0$0        CoreGameLoop
     0000C0B5  _old_camera_x_pixels               CoreGameLoop
     0000C0B7  G$old_camera_y_pixels$0_0$0        CoreGameLoop
     0000C0B7  _old_camera_y_pixels               CoreGameLoop
     0000C0B9  G$map_pos_x_tiles$0_0$0            CoreGameLoop
     0000C0B9  _map_pos_x_tiles                   CoreGameLoop
     0000C0BA  G$map_pos_y_tiles$0_0$0            CoreGameLoop
     0000C0BA  _map_pos_y_tiles                   CoreGameLoop
     0000C0BB  G$old_map_pos_x_tiles$0_0$0        CoreGameLoop
     0000C0BB  _old_map_pos_x_tiles               CoreGameLoop
     0000C0BC  G$old_map_pos_y_tiles$0_0$0        CoreGameLoop
     0000C0BC  _old_map_pos_y_tiles               CoreGameLoop
     0000C0BD  G$redraw$0_0$0                     CoreGameLoop
     0000C0BD  _redraw                            CoreGameLoop
     0000C0BE  G$camera_pixel_goal_x$0_0$0        CoreGameLoop
     0000C0BE  _camera_pixel_goal_x               CoreGameLoop
     0000C0BF  G$camera_pixel_goal_y$0_0$0        CoreGameLoop
     0000C0BF  _camera_pixel_goal_y               CoreGameLoop
     0000C0C0  G$cursor$0_0$0                     Battle
     0000C0C0  _cursor                            Battle
     0000C0C4  .image_tile_width                  SetTileSubmap
     0000C0C5  ___current_metasprite              Metasprites
     0000C0C7  ___current_base_tile               Metasprites
     0000C0C8  ___current_base_prop               Metasprites

ASxxxx Linker V03.00/V05.40 + sdld,  page 129.
Hexadecimal  [32-Bits]

Area                                    Addr        Size        Decimal Bytes (Attributes)
--------------------------------        ----        ----        ------- ----- ------------
_INITIALIZED                        0000C0C9    00001B40 =        6976. bytes (REL,CON)

      Value  Global                              Global Defined In Module
      -----  --------------------------------   ------------------------
     0000C0C9  G$Home$0_0$0                       home
     0000C0C9  _Home                              home
     0000CD6B  G$timer$0_0$0                      GameTitle
     0000CD6B  _timer                             GameTitle
     0000CD6C  G$frame$0_0$0                      GameTitle
     0000CD6C  _frame                             GameTitle
     0000CD6D  G$joypadPrevious$0_0$0             common
     0000CD6D  _joypadPrevious                    common
     0000CD6E  G$joypadCurrent$0_0$0              common
     0000CD6E  _joypadCurrent                     common
     0000CD6F  G$index$0_0$0                      common
     0000CD6F  _index                             common
     0000CD70  G$mouse$0_0$0                      CoreGameLoop
     0000CD70  _mouse                             CoreGameLoop
     0000CD7C  G$wabble$0_0$0                     GameJohnDoe
     0000CD7C  _wabble                            GameJohnDoe
     0000CD7D  G$invert_b$0_0$0                   GameJohnDoe
     0000CD7D  _invert_b                          GameJohnDoe
     0000CD7E  G$scanline_offsets$0_0$0           GameJohnDoe
     0000CD7E  _scanline_offsets                  GameJohnDoe
     0000CD80  G$Bestiary_Map$0_0$0               Bestiary_Map
     0000CD80  _Bestiary_Map                      Bestiary_Map
     0000CEE8  G$invert$0_0$0                     Bestiary
     0000CEE8  _invert                            Bestiary
     0000CEE9  G$WallyTiles$0_0$0                 Wally_Tiles
     0000CEE9  _WallyTiles                        Wally_Tiles
     0000D0A9  G$Wally_Map$0_0$0                  Wally_Map
     0000D0A9  _Wally_Map                         Wally_Map
     0000D0C7  G$Tick_Map$0_0$0                   Tick_Map
     0000D0C7  _Tick_Map                          Tick_Map
     0000D0E0  G$Man_Map$0_0$0                    Man_Map
     0000D0E0  _Man_Map                           Man_Map
     0000D104  G$Battle_Map$0_0$0                 Battle_Map
     0000D104  _Battle_Map                        Battle_Map
     0000D2D0  G$Drunk_Tiles$0_0$0                Drunk_Tiles
     0000D2D0  _Drunk_Tiles                       Drunk_Tiles
     0000D460  G$Drunk_Map$0_0$0                  Drunk_Map
     0000D460  _Drunk_Map                         Drunk_Map
     0000D478  G$Experiment_Tiles$0_0$0           Experiment_Tiles
     0000D478  _Experiment_Tiles                  Experiment_Tiles
     0000D658  G$Experiment_Map$0_0$0             Experiment_Map
     0000D658  _Experiment_Map                    Experiment_Map
     0000D67B  G$Ghost_Map$0_0$0                  Ghost_Map
     0000D67B  _Ghost_Map                         Ghost_Map
     0000D68F  G$Ghost_Tiles$0_0$0                Ghost_Tiles
     0000D68F  _Ghost_Tiles                       Ghost_Tiles
     0000D7CF  G$Saucer_Tiles$0_0$0               Saucer_Tiles
     0000D7CF  _Saucer_Tiles                      Saucer_Tiles
     0000D8BF  G$Saucer_Map$0_0$0                 Saucer_Map
     0000D8BF  _Saucer_Map                        Saucer_Map
ASxxxx Linker V03.00/V05.40 + sdld,  page 130.
Hexadecimal  [32-Bits]

Area                                    Addr        Size        Decimal Bytes (Attributes)
--------------------------------        ----        ----        ------- ----- ------------
_INITIALIZED                        0000C0C9    00001B40 =        6976. bytes (REL,CON)

      Value  Global                              Global Defined In Module
      -----  --------------------------------   ------------------------
     0000D8CE  G$SockHead_Map$0_0$0               SockHead_Map
     0000D8CE  _SockHead_Map                      SockHead_Map
     0000D8EA  G$SockHead_Tiles$0_0$0             SockHead_Tiles
     0000D8EA  _SockHead_Tiles                    SockHead_Tiles
     0000DA3A  G$Toby_Map$0_0$0                   Toby_Map
     0000DA3A  _Toby_Map                          Toby_Map
     0000DA56  G$Toby_Tiles$0_0$0                 Toby_Tiles
     0000DA56  _Toby_Tiles                        Toby_Tiles
     0000DC06  __submap_tile_offset               SetTileSubmap
     0000DC07  ___render_shadow_OAM               Metasprites
     0000DC08  __map_tile_offset                  SetTileMap

ASxxxx Linker V03.00/V05.40 + sdld,  page 131.
Hexadecimal  [32-Bits]

Area                                    Addr        Size        Decimal Bytes (Attributes)
--------------------------------        ----        ----        ------- ----- ------------
_HRAM12                             00000000    00000003 =           3. bytes (ABS,CON)

      Value  Global                              Global Defined In Module
      -----  --------------------------------   ------------------------
     0000FF90  __current_bank                     Runtime
     0000FF92  __shadow_OAM_base                  Runtime

ASxxxx Linker V03.00/V05.40 + sdld,  page 132.
Hexadecimal  [32-Bits]

Area                                    Addr        Size        Decimal Bytes (Attributes)
--------------------------------        ----        ----        ------- ----- ------------
_CABS0                              00000000    00000003 =           3. bytes (ABS,CON)

      Value  Global                              Global Defined In Module
      -----  --------------------------------   ------------------------
     00000048  FGameJohnDoe$__ISR_VECTOR_STAT$0   GameJohnDoe

ASxxxx Linker V03.00/V05.40 + sdld,  page 133.

Files Linked                              [ module(s) ]

C:\gbdk\lib/gb/crt0.o                     [ Runtime ]
obj\main.o                                [ main ]
obj\cast_tiles.o                          [ cast_tiles ]
obj\indoor_tiles.o                        [ indoor_tiles ]
obj\home.o                                [ home ]
obj\player.o                              [ player ]
obj\GameTitle.o                           [ GameTitle ]
obj\Globe_Tiles.o                         [ Globe_Tiles ]
obj\Title_Map.o                           [ Title_Map ]
obj\Title_Tiles.o                         [ Title_Tiles ]
obj\common.o                              [ common ]
obj\CoreGameLoop.o                        [ CoreGameLoop ]
obj\JohnDoe_Map.o                         [ JohnDoe_Map ]
obj\JohnDoe_Tiles.o                       [ JohnDoe_Tiles ]
obj\GameJohnDoe.o                         [ GameJohnDoe ]
obj\Bestiary_Map.o                        [ Bestiary_Map ]
obj\Crow_Tiles.o                          [ Crow_Tiles ]
obj\Crow_Map.o                            [ Crow_Map ]
obj\Bestiary.o                            [ Bestiary ]
obj\Font.o                                [ Font ]
obj\Gypsy_Tiles.o                         [ Gypsy_Tiles ]
obj\Gypsy_Map.o                           [ Gypsy_Map ]
obj\Wally_Tiles.o                         [ Wally_Tiles ]
obj\Wally_Map.o                           [ Wally_Map ]
obj\Skateboard_Tiles.o                    [ Skateboard_Tiles ]
obj\Cop_Tiles.o                           [ Cop_Tiles ]
obj\Officer_Map.o                         [ Officer_Map ]
obj\Police_Map.o                          [ Police_Map ]
obj\Sheriff_Map.o                         [ Sheriff_Map ]
obj\Chief_Map.o                           [ Chief_Map ]
obj\Tick_Tiles.o                          [ Tick_Tiles ]
obj\Tick_Map.o                            [ Tick_Map ]
obj\Man_Tiles.o                           [ Man_Tiles ]
obj\Man_Map.o                             [ Man_Map ]
obj\Sis_Tiles.o                           [ Sis_Tiles ]
obj\BigSis_Map.o                          [ BigSis_Map ]
obj\MadSis_Map.o                          [ MadSis_Map ]
obj\Car_Tiles.o                           [ Car_Tiles ]
obj\Car_Map.o                             [ Car_Map ]
obj\Semi_Tiles.o                          [ Semi_Tiles ]
obj\Semi_Map.o                            [ Semi_Map ]
obj\Battle.o                              [ Battle ]
obj\Battle_Map.o                          [ Battle_Map ]
obj\Drunk_Tiles.o                         [ Drunk_Tiles ]
obj\Drunk_Map.o                           [ Drunk_Map ]
obj\Experiment_Tiles.o                    [ Experiment_Tiles ]
obj\Experiment_Map.o                      [ Experiment_Map ]
obj\Ghost_Map.o                           [ Ghost_Map ]
obj\Ghost_Tiles.o                         [ Ghost_Tiles ]
obj\Saucer_Tiles.o                        [ Saucer_Tiles ]
obj\Saucer_Map.o                          [ Saucer_Map ]
obj\SockHead_Map.o                        [ SockHead_Map ]
obj\SockHead_Tiles.o                      [ SockHead_Tiles ]
obj\Toby_Map.o                            [ Toby_Map ]
obj\Toby_Tiles.o                          [ Toby_Tiles ]


Libraries Linked                          [ object file ]

C:\gbdk\lib/gb/gb.lib                     [ sfr.o ]
C:\gbdk\lib/sm83/sm83.lib                 [ itoa.o ]
C:\gbdk\lib/gb/gb.lib                     [ set_tile.o ]
C:\gbdk\lib/gb/gb.lib                     [ get_addr.o ]
C:\gbdk\lib/gb/gb.lib                     [ set_data.o ]
C:\gbdk\lib/gb/gb.lib                     [ set_tile_submap.o ]
C:\gbdk\lib/gb/gb.lib                     [ pad.o ]
C:\gbdk\lib/gb/gb.lib                     [ metasprites.o ]
C:\gbdk\lib/gb/gb.lib                     [ metasprites_flip.o ]
C:\gbdk\lib/sm83/sm83.lib                 [ strlen.o ]
C:\gbdk\lib/sm83/sm83.lib                 [ div.o ]
C:\gbdk\lib/gb/gb.lib                     [ set_bk_t.o ]
C:\gbdk\lib/gb/gb.lib                     [ set_xy_t.o ]

ASxxxx Linker V03.00/V05.40 + sdld,  page 134.

User Base Address Definitions

_DATA=0xC0A0
_CODE=0x0200
ASxxxx Linker V03.00/V05.40 + sdld,  page 135.

User Global Definitions

_shadow_OAM=0xC000
.STACK=0xE000
.refresh_OAM=0xFF80

