                                      1 ;--------------------------------------------------------
                                      2 ; File Created by SDCC : free open source ISO C Compiler 
                                      3 ; Version 4.2.2 #13350 (MINGW64)
                                      4 ;--------------------------------------------------------
                                      5 	.module GameTitle
                                      6 	.optsdcc -msm83
                                      7 	
                                      8 ;--------------------------------------------------------
                                      9 ; Public variables in this module
                                     10 ;--------------------------------------------------------
                                     11 	.globl _GameTitleUpdate
                                     12 	.globl _GameTitleSetup
                                     13 	.globl _fadeFromBlack
                                     14 	.globl _fadeToBlack
                                     15 	.globl _set_sprite_data
                                     16 	.globl _set_bkg_tiles
                                     17 	.globl _set_bkg_data
                                     18 	.globl _joypad
                                     19 	.globl _frame
                                     20 	.globl _timer
                                     21 	.globl _globe_metasprites
                                     22 	.globl _globe7
                                     23 	.globl _globe6
                                     24 	.globl _globe5
                                     25 	.globl _globe4
                                     26 	.globl _globe3
                                     27 	.globl _globe2
                                     28 	.globl _globe1
                                     29 ;--------------------------------------------------------
                                     30 ; special function registers
                                     31 ;--------------------------------------------------------
                                     32 ;--------------------------------------------------------
                                     33 ; ram data
                                     34 ;--------------------------------------------------------
                                     35 	.area _DATA
                                     36 ;--------------------------------------------------------
                                     37 ; ram data
                                     38 ;--------------------------------------------------------
                                     39 	.area _INITIALIZED
                           000000    40 G$timer$0_0$0==.
      000000                         41 _timer::
      000000                         42 	.ds 1
                           000001    43 G$frame$0_0$0==.
      000001                         44 _frame::
      000001                         45 	.ds 1
                                     46 ;--------------------------------------------------------
                                     47 ; absolute external ram data
                                     48 ;--------------------------------------------------------
                                     49 	.area _DABS (ABS)
                                     50 ;--------------------------------------------------------
                                     51 ; global & static initialisations
                                     52 ;--------------------------------------------------------
                                     53 	.area _HOME
                                     54 	.area _GSINIT
                                     55 	.area _GSFINAL
                                     56 	.area _GSINIT
                                     57 ;--------------------------------------------------------
                                     58 ; Home
                                     59 ;--------------------------------------------------------
                                     60 	.area _HOME
                                     61 	.area _HOME
                                     62 ;--------------------------------------------------------
                                     63 ; code
                                     64 ;--------------------------------------------------------
                                     65 	.area _CODE
                           000000    66 	G$GameTitleSetup$0$0	= .
                                     67 	.globl	G$GameTitleSetup$0$0
                           000000    68 	C$GameTitle.c$91$0_0$123	= .
                                     69 	.globl	C$GameTitle.c$91$0_0$123
                                     70 ;src\GameTitle.c:91: void GameTitleSetup()
                                     71 ;	---------------------------------
                                     72 ; Function GameTitleSetup
                                     73 ; ---------------------------------
      000000                         74 _GameTitleSetup::
                                     75 ;C:/gbdk/include/gb/gb.h:1208: SCX_REG=x, SCY_REG=y;
      000000 AF               [ 4]   76 	xor	a, a
      000001 E0r00            [12]   77 	ldh	(_SCX_REG + 0), a
      000003 AF               [ 4]   78 	xor	a, a
      000004 E0r00            [12]   79 	ldh	(_SCY_REG + 0), a
                           000006    80 	C$GameTitle.c$94$1_0$123	= .
                                     81 	.globl	C$GameTitle.c$94$1_0$123
                                     82 ;src\GameTitle.c:94: BGP_REG = DMG_PALETTE(DMG_DARK_GRAY, DMG_BLACK, DMG_BLACK, DMG_BLACK);
      000006 3E FE            [ 8]   83 	ld	a, #0xfe
      000008 E0r00            [12]   84 	ldh	(_BGP_REG + 0), a
                           00000A    85 	C$GameTitle.c$95$1_0$123	= .
                                     86 	.globl	C$GameTitle.c$95$1_0$123
                                     87 ;src\GameTitle.c:95: OBP0_REG = DMG_PALETTE(DMG_DARK_GRAY, DMG_BLACK, DMG_BLACK, DMG_BLACK);
      00000A 3E FE            [ 8]   88 	ld	a, #0xfe
      00000C E0r00            [12]   89 	ldh	(_OBP0_REG + 0), a
                           00000E    90 	C$GameTitle.c$96$1_0$123	= .
                                     91 	.globl	C$GameTitle.c$96$1_0$123
                                     92 ;src\GameTitle.c:96: SPRITES_8x16;
      00000E F0r00            [12]   93 	ldh	a, (_LCDC_REG + 0)
      000010 F6 04            [ 8]   94 	or	a, #0x04
      000012 E0r00            [12]   95 	ldh	(_LCDC_REG + 0), a
                           000014    96 	C$GameTitle.c$97$1_0$123	= .
                                     97 	.globl	C$GameTitle.c$97$1_0$123
                                     98 ;src\GameTitle.c:97: set_bkg_data(0, 50, TitleLabel);
      000014 11r00r00         [12]   99 	ld	de, #_TitleLabel
      000017 D5               [16]  100 	push	de
      000018 21 00 32         [12]  101 	ld	hl, #0x3200
      00001B E5               [16]  102 	push	hl
      00001C CDr00r00         [24]  103 	call	_set_bkg_data
      00001F E8 04            [16]  104 	add	sp, #4
                           000021   105 	C$GameTitle.c$98$1_0$123	= .
                                    106 	.globl	C$GameTitle.c$98$1_0$123
                                    107 ;src\GameTitle.c:98: set_bkg_tiles(0, 0, Title_MapWidth, Title_MapHeight, Title_Map);
      000021 11r00r00         [12]  108 	ld	de, #_Title_Map
      000024 D5               [16]  109 	push	de
      000025 21 14 12         [12]  110 	ld	hl, #0x1214
      000028 E5               [16]  111 	push	hl
      000029 AF               [ 4]  112 	xor	a, a
      00002A 0F               [ 4]  113 	rrca
      00002B F5               [16]  114 	push	af
      00002C CDr00r00         [24]  115 	call	_set_bkg_tiles
      00002F E8 06            [16]  116 	add	sp, #6
                           000031   117 	C$GameTitle.c$99$1_0$123	= .
                                    118 	.globl	C$GameTitle.c$99$1_0$123
                                    119 ;src\GameTitle.c:99: set_sprite_data(0, 112, Globe_Tiles);
      000031 11r00r00         [12]  120 	ld	de, #_Globe_Tiles
      000034 D5               [16]  121 	push	de
      000035 21 00 70         [12]  122 	ld	hl, #0x7000
      000038 E5               [16]  123 	push	hl
      000039 CDr00r00         [24]  124 	call	_set_sprite_data
      00003C E8 04            [16]  125 	add	sp, #4
                                    126 ;src\GameTitle.c:100: move_metasprite(globe_metasprites[6], 0, 0, 88, 64);
      00003E 21r74r01         [12]  127 	ld	hl, #(_globe_metasprites + 12)
      000041 2A               [ 8]  128 	ld	a, (hl+)
      000042 4F               [ 4]  129 	ld	c, a
      000043 7E               [ 8]  130 	ld	a, (hl)
                                    131 ;C:/gbdk/include/gb/metasprites.h:140: __current_metasprite = metasprite;
      000044 21r00r00         [12]  132 	ld	hl, #___current_metasprite
      000047 71               [ 8]  133 	ld	(hl), c
      000048 23               [ 8]  134 	inc	hl
      000049 77               [ 8]  135 	ld	(hl), a
                                    136 ;C:/gbdk/include/gb/metasprites.h:141: __current_base_tile = base_tile;
      00004A 21r00r00         [12]  137 	ld	hl, #___current_base_tile
      00004D 36 00            [12]  138 	ld	(hl), #0x00
                                    139 ;C:/gbdk/include/gb/metasprites.h:142: return __move_metasprite(base_sprite, x, y);
      00004F 21 58 40         [12]  140 	ld	hl, #0x4058
      000052 E5               [16]  141 	push	hl
      000053 AF               [ 4]  142 	xor	a, a
      000054 F5               [16]  143 	push	af
      000055 33               [ 8]  144 	inc	sp
      000056 CDr00r00         [24]  145 	call	___move_metasprite
      000059 E8 03            [16]  146 	add	sp, #3
                           00005B   147 	C$GameTitle.c$101$1_0$123	= .
                                    148 	.globl	C$GameTitle.c$101$1_0$123
                                    149 ;src\GameTitle.c:101: SHOW_BKG;
      00005B F0r00            [12]  150 	ldh	a, (_LCDC_REG + 0)
      00005D F6 01            [ 8]  151 	or	a, #0x01
      00005F E0r00            [12]  152 	ldh	(_LCDC_REG + 0), a
                           000061   153 	C$GameTitle.c$102$1_0$123	= .
                                    154 	.globl	C$GameTitle.c$102$1_0$123
                                    155 ;src\GameTitle.c:102: SHOW_SPRITES;
      000061 F0r00            [12]  156 	ldh	a, (_LCDC_REG + 0)
      000063 F6 02            [ 8]  157 	or	a, #0x02
      000065 E0r00            [12]  158 	ldh	(_LCDC_REG + 0), a
                           000067   159 	C$GameTitle.c$103$1_0$123	= .
                                    160 	.globl	C$GameTitle.c$103$1_0$123
                                    161 ;src\GameTitle.c:103: fadeFromBlack(10);
      000067 3E 0A            [ 8]  162 	ld	a, #0x0a
                           000069   163 	C$GameTitle.c$104$1_0$123	= .
                                    164 	.globl	C$GameTitle.c$104$1_0$123
                                    165 ;src\GameTitle.c:104: }
                           000069   166 	C$GameTitle.c$104$1_0$123	= .
                                    167 	.globl	C$GameTitle.c$104$1_0$123
                           000069   168 	XG$GameTitleSetup$0$0	= .
                                    169 	.globl	XG$GameTitleSetup$0$0
      000069 C3r00r00         [16]  170 	jp	_fadeFromBlack
                           00006C   171 G$globe1$0_0$0 == .
      00006C                        172 _globe1:
      00006C 00                     173 	.db #0x00	;  0
      00006D 00                     174 	.db #0x00	;  0
      00006E 00                     175 	.db #0x00	; 0
      00006F 00                     176 	.db #0x00	; 0
      000070 10                     177 	.db #0x10	;  16
      000071 00                     178 	.db #0x00	;  0
      000072 02                     179 	.db #0x02	; 2
      000073 00                     180 	.db #0x00	; 0
      000074 F0                     181 	.db #0xf0	; -16
      000075 08                     182 	.db #0x08	;  8
      000076 04                     183 	.db #0x04	; 4
      000077 00                     184 	.db #0x00	; 0
      000078 10                     185 	.db #0x10	;  16
      000079 00                     186 	.db #0x00	;  0
      00007A 06                     187 	.db #0x06	; 6
      00007B 00                     188 	.db #0x00	; 0
      00007C F0                     189 	.db #0xf0	; -16
      00007D 08                     190 	.db #0x08	;  8
      00007E 08                     191 	.db #0x08	; 8
      00007F 00                     192 	.db #0x00	; 0
      000080 10                     193 	.db #0x10	;  16
      000081 00                     194 	.db #0x00	;  0
      000082 0A                     195 	.db #0x0a	; 10
      000083 00                     196 	.db #0x00	; 0
      000084 F0                     197 	.db #0xf0	; -16
      000085 08                     198 	.db #0x08	;  8
      000086 0C                     199 	.db #0x0c	; 12
      000087 00                     200 	.db #0x00	; 0
      000088 10                     201 	.db #0x10	;  16
      000089 00                     202 	.db #0x00	;  0
      00008A 0E                     203 	.db #0x0e	; 14
      00008B 00                     204 	.db #0x00	; 0
      00008C 80                     205 	.db #0x80	; -128
      00008D 00                     206 	.db #0x00	;  0
      00008E 00                     207 	.db #0x00	; 0
      00008F 00                     208 	.db #0x00	; 0
                           000090   209 G$globe2$0_0$0 == .
      000090                        210 _globe2:
      000090 00                     211 	.db #0x00	;  0
      000091 00                     212 	.db #0x00	;  0
      000092 10                     213 	.db #0x10	; 16
      000093 00                     214 	.db #0x00	; 0
      000094 10                     215 	.db #0x10	;  16
      000095 00                     216 	.db #0x00	;  0
      000096 12                     217 	.db #0x12	; 18
      000097 00                     218 	.db #0x00	; 0
      000098 F0                     219 	.db #0xf0	; -16
      000099 08                     220 	.db #0x08	;  8
      00009A 14                     221 	.db #0x14	; 20
      00009B 00                     222 	.db #0x00	; 0
      00009C 10                     223 	.db #0x10	;  16
      00009D 00                     224 	.db #0x00	;  0
      00009E 16                     225 	.db #0x16	; 22
      00009F 00                     226 	.db #0x00	; 0
      0000A0 F0                     227 	.db #0xf0	; -16
      0000A1 08                     228 	.db #0x08	;  8
      0000A2 18                     229 	.db #0x18	; 24
      0000A3 00                     230 	.db #0x00	; 0
      0000A4 10                     231 	.db #0x10	;  16
      0000A5 00                     232 	.db #0x00	;  0
      0000A6 1A                     233 	.db #0x1a	; 26
      0000A7 00                     234 	.db #0x00	; 0
      0000A8 F0                     235 	.db #0xf0	; -16
      0000A9 08                     236 	.db #0x08	;  8
      0000AA 1C                     237 	.db #0x1c	; 28
      0000AB 00                     238 	.db #0x00	; 0
      0000AC 10                     239 	.db #0x10	;  16
      0000AD 00                     240 	.db #0x00	;  0
      0000AE 1E                     241 	.db #0x1e	; 30
      0000AF 00                     242 	.db #0x00	; 0
      0000B0 80                     243 	.db #0x80	; -128
      0000B1 00                     244 	.db #0x00	;  0
      0000B2 00                     245 	.db #0x00	; 0
      0000B3 00                     246 	.db #0x00	; 0
                           0000B4   247 G$globe3$0_0$0 == .
      0000B4                        248 _globe3:
      0000B4 00                     249 	.db #0x00	;  0
      0000B5 00                     250 	.db #0x00	;  0
      0000B6 20                     251 	.db #0x20	; 32
      0000B7 00                     252 	.db #0x00	; 0
      0000B8 10                     253 	.db #0x10	;  16
      0000B9 00                     254 	.db #0x00	;  0
      0000BA 22                     255 	.db #0x22	; 34
      0000BB 00                     256 	.db #0x00	; 0
      0000BC F0                     257 	.db #0xf0	; -16
      0000BD 08                     258 	.db #0x08	;  8
      0000BE 24                     259 	.db #0x24	; 36
      0000BF 00                     260 	.db #0x00	; 0
      0000C0 10                     261 	.db #0x10	;  16
      0000C1 00                     262 	.db #0x00	;  0
      0000C2 26                     263 	.db #0x26	; 38
      0000C3 00                     264 	.db #0x00	; 0
      0000C4 F0                     265 	.db #0xf0	; -16
      0000C5 08                     266 	.db #0x08	;  8
      0000C6 28                     267 	.db #0x28	; 40
      0000C7 00                     268 	.db #0x00	; 0
      0000C8 10                     269 	.db #0x10	;  16
      0000C9 00                     270 	.db #0x00	;  0
      0000CA 2A                     271 	.db #0x2a	; 42
      0000CB 00                     272 	.db #0x00	; 0
      0000CC F0                     273 	.db #0xf0	; -16
      0000CD 08                     274 	.db #0x08	;  8
      0000CE 2C                     275 	.db #0x2c	; 44
      0000CF 00                     276 	.db #0x00	; 0
      0000D0 10                     277 	.db #0x10	;  16
      0000D1 00                     278 	.db #0x00	;  0
      0000D2 2E                     279 	.db #0x2e	; 46
      0000D3 00                     280 	.db #0x00	; 0
      0000D4 80                     281 	.db #0x80	; -128
      0000D5 00                     282 	.db #0x00	;  0
      0000D6 00                     283 	.db #0x00	; 0
      0000D7 00                     284 	.db #0x00	; 0
                           0000D8   285 G$globe4$0_0$0 == .
      0000D8                        286 _globe4:
      0000D8 00                     287 	.db #0x00	;  0
      0000D9 00                     288 	.db #0x00	;  0
      0000DA 30                     289 	.db #0x30	; 48	'0'
      0000DB 00                     290 	.db #0x00	; 0
      0000DC 10                     291 	.db #0x10	;  16
      0000DD 00                     292 	.db #0x00	;  0
      0000DE 32                     293 	.db #0x32	; 50	'2'
      0000DF 00                     294 	.db #0x00	; 0
      0000E0 F0                     295 	.db #0xf0	; -16
      0000E1 08                     296 	.db #0x08	;  8
      0000E2 34                     297 	.db #0x34	; 52	'4'
      0000E3 00                     298 	.db #0x00	; 0
      0000E4 10                     299 	.db #0x10	;  16
      0000E5 00                     300 	.db #0x00	;  0
      0000E6 36                     301 	.db #0x36	; 54	'6'
      0000E7 00                     302 	.db #0x00	; 0
      0000E8 F0                     303 	.db #0xf0	; -16
      0000E9 08                     304 	.db #0x08	;  8
      0000EA 38                     305 	.db #0x38	; 56	'8'
      0000EB 00                     306 	.db #0x00	; 0
      0000EC 10                     307 	.db #0x10	;  16
      0000ED 00                     308 	.db #0x00	;  0
      0000EE 3A                     309 	.db #0x3a	; 58
      0000EF 00                     310 	.db #0x00	; 0
      0000F0 F0                     311 	.db #0xf0	; -16
      0000F1 08                     312 	.db #0x08	;  8
      0000F2 3C                     313 	.db #0x3c	; 60
      0000F3 00                     314 	.db #0x00	; 0
      0000F4 10                     315 	.db #0x10	;  16
      0000F5 00                     316 	.db #0x00	;  0
      0000F6 3E                     317 	.db #0x3e	; 62
      0000F7 00                     318 	.db #0x00	; 0
      0000F8 80                     319 	.db #0x80	; -128
      0000F9 00                     320 	.db #0x00	;  0
      0000FA 00                     321 	.db #0x00	; 0
      0000FB 00                     322 	.db #0x00	; 0
                           0000FC   323 G$globe5$0_0$0 == .
      0000FC                        324 _globe5:
      0000FC 00                     325 	.db #0x00	;  0
      0000FD 00                     326 	.db #0x00	;  0
      0000FE 40                     327 	.db #0x40	; 64
      0000FF 00                     328 	.db #0x00	; 0
      000100 10                     329 	.db #0x10	;  16
      000101 00                     330 	.db #0x00	;  0
      000102 42                     331 	.db #0x42	; 66	'B'
      000103 00                     332 	.db #0x00	; 0
      000104 F0                     333 	.db #0xf0	; -16
      000105 08                     334 	.db #0x08	;  8
      000106 44                     335 	.db #0x44	; 68	'D'
      000107 00                     336 	.db #0x00	; 0
      000108 10                     337 	.db #0x10	;  16
      000109 00                     338 	.db #0x00	;  0
      00010A 46                     339 	.db #0x46	; 70	'F'
      00010B 00                     340 	.db #0x00	; 0
      00010C F0                     341 	.db #0xf0	; -16
      00010D 08                     342 	.db #0x08	;  8
      00010E 48                     343 	.db #0x48	; 72	'H'
      00010F 00                     344 	.db #0x00	; 0
      000110 10                     345 	.db #0x10	;  16
      000111 00                     346 	.db #0x00	;  0
      000112 4A                     347 	.db #0x4a	; 74	'J'
      000113 00                     348 	.db #0x00	; 0
      000114 F0                     349 	.db #0xf0	; -16
      000115 08                     350 	.db #0x08	;  8
      000116 4C                     351 	.db #0x4c	; 76	'L'
      000117 00                     352 	.db #0x00	; 0
      000118 10                     353 	.db #0x10	;  16
      000119 00                     354 	.db #0x00	;  0
      00011A 4E                     355 	.db #0x4e	; 78	'N'
      00011B 00                     356 	.db #0x00	; 0
      00011C 80                     357 	.db #0x80	; -128
      00011D 00                     358 	.db #0x00	;  0
      00011E 00                     359 	.db #0x00	; 0
      00011F 00                     360 	.db #0x00	; 0
                           000120   361 G$globe6$0_0$0 == .
      000120                        362 _globe6:
      000120 00                     363 	.db #0x00	;  0
      000121 00                     364 	.db #0x00	;  0
      000122 50                     365 	.db #0x50	; 80	'P'
      000123 00                     366 	.db #0x00	; 0
      000124 10                     367 	.db #0x10	;  16
      000125 00                     368 	.db #0x00	;  0
      000126 52                     369 	.db #0x52	; 82	'R'
      000127 00                     370 	.db #0x00	; 0
      000128 F0                     371 	.db #0xf0	; -16
      000129 08                     372 	.db #0x08	;  8
      00012A 54                     373 	.db #0x54	; 84	'T'
      00012B 00                     374 	.db #0x00	; 0
      00012C 10                     375 	.db #0x10	;  16
      00012D 00                     376 	.db #0x00	;  0
      00012E 56                     377 	.db #0x56	; 86	'V'
      00012F 00                     378 	.db #0x00	; 0
      000130 F0                     379 	.db #0xf0	; -16
      000131 08                     380 	.db #0x08	;  8
      000132 58                     381 	.db #0x58	; 88	'X'
      000133 00                     382 	.db #0x00	; 0
      000134 10                     383 	.db #0x10	;  16
      000135 00                     384 	.db #0x00	;  0
      000136 5A                     385 	.db #0x5a	; 90	'Z'
      000137 00                     386 	.db #0x00	; 0
      000138 F0                     387 	.db #0xf0	; -16
      000139 08                     388 	.db #0x08	;  8
      00013A 5C                     389 	.db #0x5c	; 92
      00013B 00                     390 	.db #0x00	; 0
      00013C 10                     391 	.db #0x10	;  16
      00013D 00                     392 	.db #0x00	;  0
      00013E 5E                     393 	.db #0x5e	; 94
      00013F 00                     394 	.db #0x00	; 0
      000140 80                     395 	.db #0x80	; -128
      000141 00                     396 	.db #0x00	;  0
      000142 00                     397 	.db #0x00	; 0
      000143 00                     398 	.db #0x00	; 0
                           000144   399 G$globe7$0_0$0 == .
      000144                        400 _globe7:
      000144 00                     401 	.db #0x00	;  0
      000145 00                     402 	.db #0x00	;  0
      000146 60                     403 	.db #0x60	; 96
      000147 00                     404 	.db #0x00	; 0
      000148 10                     405 	.db #0x10	;  16
      000149 00                     406 	.db #0x00	;  0
      00014A 62                     407 	.db #0x62	; 98	'b'
      00014B 00                     408 	.db #0x00	; 0
      00014C F0                     409 	.db #0xf0	; -16
      00014D 08                     410 	.db #0x08	;  8
      00014E 64                     411 	.db #0x64	; 100	'd'
      00014F 00                     412 	.db #0x00	; 0
      000150 10                     413 	.db #0x10	;  16
      000151 00                     414 	.db #0x00	;  0
      000152 66                     415 	.db #0x66	; 102	'f'
      000153 00                     416 	.db #0x00	; 0
      000154 F0                     417 	.db #0xf0	; -16
      000155 08                     418 	.db #0x08	;  8
      000156 68                     419 	.db #0x68	; 104	'h'
      000157 00                     420 	.db #0x00	; 0
      000158 10                     421 	.db #0x10	;  16
      000159 00                     422 	.db #0x00	;  0
      00015A 6A                     423 	.db #0x6a	; 106	'j'
      00015B 00                     424 	.db #0x00	; 0
      00015C F0                     425 	.db #0xf0	; -16
      00015D 08                     426 	.db #0x08	;  8
      00015E 6C                     427 	.db #0x6c	; 108	'l'
      00015F 00                     428 	.db #0x00	; 0
      000160 10                     429 	.db #0x10	;  16
      000161 00                     430 	.db #0x00	;  0
      000162 6E                     431 	.db #0x6e	; 110	'n'
      000163 00                     432 	.db #0x00	; 0
      000164 80                     433 	.db #0x80	; -128
      000165 00                     434 	.db #0x00	;  0
      000166 00                     435 	.db #0x00	; 0
      000167 00                     436 	.db #0x00	; 0
                           000168   437 G$globe_metasprites$0_0$0 == .
      000168                        438 _globe_metasprites:
      000168r6Cr00                  439 	.dw _globe1
      00016Ar90r00                  440 	.dw _globe2
      00016CrB4r00                  441 	.dw _globe3
      00016ErD8r00                  442 	.dw _globe4
      000170rFCr00                  443 	.dw _globe5
      000172r20r01                  444 	.dw _globe6
      000174r44r01                  445 	.dw _globe7
                           000176   446 	G$GameTitleUpdate$0$0	= .
                                    447 	.globl	G$GameTitleUpdate$0$0
                           000176   448 	C$GameTitle.c$108$1_0$130	= .
                                    449 	.globl	C$GameTitle.c$108$1_0$130
                                    450 ;src\GameTitle.c:108: uint8_t GameTitleUpdate()
                                    451 ;	---------------------------------
                                    452 ; Function GameTitleUpdate
                                    453 ; ---------------------------------
      000176                        454 _GameTitleUpdate::
                           000176   455 	C$GameTitle.c$110$1_0$130	= .
                                    456 	.globl	C$GameTitle.c$110$1_0$130
                                    457 ;src\GameTitle.c:110: joypadPrevious = joypadCurrent;
      000176 FAr00r00         [16]  458 	ld	a, (#_joypadCurrent)
      000179 EAr00r00         [16]  459 	ld	(#_joypadPrevious),a
                           00017C   460 	C$GameTitle.c$111$1_0$130	= .
                                    461 	.globl	C$GameTitle.c$111$1_0$130
                                    462 ;src\GameTitle.c:111: joypadCurrent = joypad();
      00017C CDr00r00         [24]  463 	call	_joypad
      00017F EAr00r00         [16]  464 	ld	(#_joypadCurrent),a
                           000182   465 	C$GameTitle.c$112$1_0$130	= .
                                    466 	.globl	C$GameTitle.c$112$1_0$130
                                    467 ;src\GameTitle.c:112: timer++;
      000182 21r00r00         [12]  468 	ld	hl, #_timer
      000185 34               [12]  469 	inc	(hl)
                           000186   470 	C$GameTitle.c$113$1_0$130	= .
                                    471 	.globl	C$GameTitle.c$113$1_0$130
                                    472 ;src\GameTitle.c:113: if (timer == 60)
      000186 7E               [ 8]  473 	ld	a, (hl)
      000187 D6 3C            [ 8]  474 	sub	a, #0x3c
      000189 20 09            [12]  475 	jr	NZ, 00102$
                           00018B   476 	C$GameTitle.c$115$2_0$131	= .
                                    477 	.globl	C$GameTitle.c$115$2_0$131
                                    478 ;src\GameTitle.c:115: frame++; 
      00018B 21r01r00         [12]  479 	ld	hl, #_frame
      00018E 34               [12]  480 	inc	(hl)
                           00018F   481 	C$GameTitle.c$116$2_0$131	= .
                                    482 	.globl	C$GameTitle.c$116$2_0$131
                                    483 ;src\GameTitle.c:116: timer = 0;
      00018F 21r00r00         [12]  484 	ld	hl, #_timer
      000192 36 00            [12]  485 	ld	(hl), #0x00
      000194                        486 00102$:
                           000194   487 	C$GameTitle.c$118$1_0$130	= .
                                    488 	.globl	C$GameTitle.c$118$1_0$130
                                    489 ;src\GameTitle.c:118: if (frame >= 7) frame = 0;
      000194 21r01r00         [12]  490 	ld	hl, #_frame
      000197 7E               [ 8]  491 	ld	a, (hl)
      000198 D6 07            [ 8]  492 	sub	a, #0x07
      00019A 38 02            [12]  493 	jr	C, 00104$
      00019C 36 00            [12]  494 	ld	(hl), #0x00
      00019E                        495 00104$:
                                    496 ;src\GameTitle.c:119: move_metasprite(globe_metasprites[frame], 0, 0, 88, 64);
      00019E 01r68r01         [12]  497 	ld	bc, #_globe_metasprites+0
      0001A1 21r01r00         [12]  498 	ld	hl, #_frame
      0001A4 6E               [ 8]  499 	ld	l, (hl)
                                    500 ;	spillPairReg hl
                                    501 ;	spillPairReg hl
      0001A5 26 00            [ 8]  502 	ld	h, #0x00
                                    503 ;	spillPairReg hl
                                    504 ;	spillPairReg hl
      0001A7 29               [ 8]  505 	add	hl, hl
      0001A8 09               [ 8]  506 	add	hl, bc
      0001A9 2A               [ 8]  507 	ld	a, (hl+)
      0001AA 6E               [ 8]  508 	ld	l, (hl)
                                    509 ;	spillPairReg hl
                                    510 ;C:/gbdk/include/gb/metasprites.h:140: __current_metasprite = metasprite;
      0001AB 5F               [ 4]  511 	ld	e, a
      0001AC 55               [ 4]  512 	ld	d, l
      0001AD 21r00r00         [12]  513 	ld	hl, #___current_metasprite
      0001B0 7B               [ 4]  514 	ld	a, e
      0001B1 22               [ 8]  515 	ld	(hl+), a
      0001B2 72               [ 8]  516 	ld	(hl), d
                                    517 ;C:/gbdk/include/gb/metasprites.h:141: __current_base_tile = base_tile;
      0001B3 21r00r00         [12]  518 	ld	hl, #___current_base_tile
      0001B6 36 00            [12]  519 	ld	(hl), #0x00
                                    520 ;C:/gbdk/include/gb/metasprites.h:142: return __move_metasprite(base_sprite, x, y);
      0001B8 C5               [16]  521 	push	bc
      0001B9 21 58 40         [12]  522 	ld	hl, #0x4058
      0001BC E5               [16]  523 	push	hl
      0001BD AF               [ 4]  524 	xor	a, a
      0001BE F5               [16]  525 	push	af
      0001BF 33               [ 8]  526 	inc	sp
      0001C0 CDr00r00         [24]  527 	call	___move_metasprite
      0001C3 E8 03            [16]  528 	add	sp, #3
      0001C5 C1               [12]  529 	pop	bc
                           0001C6   530 	C$GameTitle.c$110$1_0$130	= .
                                    531 	.globl	C$GameTitle.c$110$1_0$130
                                    532 ;src\GameTitle.c:110: joypadPrevious = joypadCurrent;
      0001C6 21r00r00         [12]  533 	ld	hl, #_joypadCurrent
      0001C9 5E               [ 8]  534 	ld	e, (hl)
                           0001CA   535 	C$GameTitle.c$120$1_0$130	= .
                                    536 	.globl	C$GameTitle.c$120$1_0$130
                                    537 ;src\GameTitle.c:120: if (joypadCurrent & J_START)
      0001CA CB 7B            [ 8]  538 	bit	7, e
      0001CC 28 2A            [12]  539 	jr	Z, 00106$
                           0001CE   540 	C$GameTitle.c$122$2_0$132	= .
                                    541 	.globl	C$GameTitle.c$122$2_0$132
                                    542 ;src\GameTitle.c:122: fadeToBlack(10);
      0001CE C5               [16]  543 	push	bc
      0001CF 3E 0A            [ 8]  544 	ld	a, #0x0a
      0001D1 CDr00r00         [24]  545 	call	_fadeToBlack
      0001D4 C1               [12]  546 	pop	bc
                                    547 ;src\GameTitle.c:123: move_metasprite(globe_metasprites[frame], 0, 0, -80, -80);
      0001D5 21r01r00         [12]  548 	ld	hl, #_frame
      0001D8 6E               [ 8]  549 	ld	l, (hl)
                                    550 ;	spillPairReg hl
                                    551 ;	spillPairReg hl
      0001D9 26 00            [ 8]  552 	ld	h, #0x00
                                    553 ;	spillPairReg hl
                                    554 ;	spillPairReg hl
      0001DB 29               [ 8]  555 	add	hl, hl
      0001DC 09               [ 8]  556 	add	hl, bc
      0001DD 2A               [ 8]  557 	ld	a, (hl+)
      0001DE 4E               [ 8]  558 	ld	c, (hl)
                                    559 ;C:/gbdk/include/gb/metasprites.h:140: __current_metasprite = metasprite;
      0001DF 21r00r00         [12]  560 	ld	hl, #___current_metasprite
      0001E2 22               [ 8]  561 	ld	(hl+), a
      0001E3 71               [ 8]  562 	ld	(hl), c
                                    563 ;C:/gbdk/include/gb/metasprites.h:141: __current_base_tile = base_tile;
      0001E4 21r00r00         [12]  564 	ld	hl, #___current_base_tile
      0001E7 36 00            [12]  565 	ld	(hl), #0x00
                                    566 ;C:/gbdk/include/gb/metasprites.h:142: return __move_metasprite(base_sprite, x, y);
      0001E9 21 B0 B0         [12]  567 	ld	hl, #0xb0b0
      0001EC E5               [16]  568 	push	hl
      0001ED AF               [ 4]  569 	xor	a, a
      0001EE F5               [16]  570 	push	af
      0001EF 33               [ 8]  571 	inc	sp
      0001F0 CDr00r00         [24]  572 	call	___move_metasprite
      0001F3 E8 03            [16]  573 	add	sp, #3
                           0001F5   574 	C$GameTitle.c$124$2_0$132	= .
                                    575 	.globl	C$GameTitle.c$124$2_0$132
                                    576 ;src\GameTitle.c:124: return COREGAMELOOP;
      0001F5 3E 02            [ 8]  577 	ld	a, #0x02
      0001F7 C9               [16]  578 	ret
      0001F8                        579 00106$:
                           0001F8   580 	C$GameTitle.c$126$1_0$130	= .
                                    581 	.globl	C$GameTitle.c$126$1_0$130
                                    582 ;src\GameTitle.c:126: if (joypadCurrent & J_SELECT)
      0001F8 CB 73            [ 8]  583 	bit	6, e
      0001FA 28 2A            [12]  584 	jr	Z, 00108$
                           0001FC   585 	C$GameTitle.c$128$2_0$133	= .
                                    586 	.globl	C$GameTitle.c$128$2_0$133
                                    587 ;src\GameTitle.c:128: fadeToBlack(10);
      0001FC C5               [16]  588 	push	bc
      0001FD 3E 0A            [ 8]  589 	ld	a, #0x0a
      0001FF CDr00r00         [24]  590 	call	_fadeToBlack
      000202 C1               [12]  591 	pop	bc
                                    592 ;src\GameTitle.c:129: move_metasprite(globe_metasprites[frame], 0, 0, -80, -80);
      000203 21r01r00         [12]  593 	ld	hl, #_frame
      000206 6E               [ 8]  594 	ld	l, (hl)
                                    595 ;	spillPairReg hl
                                    596 ;	spillPairReg hl
      000207 26 00            [ 8]  597 	ld	h, #0x00
                                    598 ;	spillPairReg hl
                                    599 ;	spillPairReg hl
      000209 29               [ 8]  600 	add	hl, hl
      00020A 09               [ 8]  601 	add	hl, bc
      00020B 2A               [ 8]  602 	ld	a, (hl+)
      00020C 4E               [ 8]  603 	ld	c, (hl)
                                    604 ;C:/gbdk/include/gb/metasprites.h:140: __current_metasprite = metasprite;
      00020D 21r00r00         [12]  605 	ld	hl, #___current_metasprite
      000210 22               [ 8]  606 	ld	(hl+), a
      000211 71               [ 8]  607 	ld	(hl), c
                                    608 ;C:/gbdk/include/gb/metasprites.h:141: __current_base_tile = base_tile;
      000212 21r00r00         [12]  609 	ld	hl, #___current_base_tile
      000215 36 00            [12]  610 	ld	(hl), #0x00
                                    611 ;C:/gbdk/include/gb/metasprites.h:142: return __move_metasprite(base_sprite, x, y);
      000217 21 B0 B0         [12]  612 	ld	hl, #0xb0b0
      00021A E5               [16]  613 	push	hl
      00021B AF               [ 4]  614 	xor	a, a
      00021C F5               [16]  615 	push	af
      00021D 33               [ 8]  616 	inc	sp
      00021E CDr00r00         [24]  617 	call	___move_metasprite
      000221 E8 03            [16]  618 	add	sp, #3
                           000223   619 	C$GameTitle.c$130$2_0$133	= .
                                    620 	.globl	C$GameTitle.c$130$2_0$133
                                    621 ;src\GameTitle.c:130: return GAMEJOHNDOE;
      000223 3E 03            [ 8]  622 	ld	a, #0x03
      000225 C9               [16]  623 	ret
      000226                        624 00108$:
                           000226   625 	C$GameTitle.c$132$1_0$130	= .
                                    626 	.globl	C$GameTitle.c$132$1_0$130
                                    627 ;src\GameTitle.c:132: if (joypadCurrent & J_B)
      000226 CB 6B            [ 8]  628 	bit	5, e
      000228 28 3E            [12]  629 	jr	Z, 00110$
                           00022A   630 	C$GameTitle.c$134$2_0$134	= .
                                    631 	.globl	C$GameTitle.c$134$2_0$134
                                    632 ;src\GameTitle.c:134: fadeToBlack(3);
      00022A C5               [16]  633 	push	bc
      00022B 3E 03            [ 8]  634 	ld	a, #0x03
      00022D CDr00r00         [24]  635 	call	_fadeToBlack
      000230 3E 03            [ 8]  636 	ld	a, #0x03
      000232 CDr00r00         [24]  637 	call	_fadeFromBlack
      000235 3E 03            [ 8]  638 	ld	a, #0x03
      000237 CDr00r00         [24]  639 	call	_fadeToBlack
      00023A 3E 03            [ 8]  640 	ld	a, #0x03
      00023C CDr00r00         [24]  641 	call	_fadeFromBlack
      00023F 3E 03            [ 8]  642 	ld	a, #0x03
      000241 CDr00r00         [24]  643 	call	_fadeToBlack
      000244 C1               [12]  644 	pop	bc
                                    645 ;src\GameTitle.c:139: move_metasprite(globe_metasprites[frame], 0, 0, -80, -80);
      000245 21r01r00         [12]  646 	ld	hl, #_frame
      000248 6E               [ 8]  647 	ld	l, (hl)
                                    648 ;	spillPairReg hl
                                    649 ;	spillPairReg hl
      000249 26 00            [ 8]  650 	ld	h, #0x00
                                    651 ;	spillPairReg hl
                                    652 ;	spillPairReg hl
      00024B 29               [ 8]  653 	add	hl, hl
      00024C 09               [ 8]  654 	add	hl, bc
      00024D 2A               [ 8]  655 	ld	a, (hl+)
      00024E 4E               [ 8]  656 	ld	c, (hl)
                                    657 ;C:/gbdk/include/gb/metasprites.h:140: __current_metasprite = metasprite;
      00024F 21r00r00         [12]  658 	ld	hl, #___current_metasprite
      000252 22               [ 8]  659 	ld	(hl+), a
      000253 71               [ 8]  660 	ld	(hl), c
                                    661 ;C:/gbdk/include/gb/metasprites.h:141: __current_base_tile = base_tile;
      000254 21r00r00         [12]  662 	ld	hl, #___current_base_tile
      000257 36 00            [12]  663 	ld	(hl), #0x00
                                    664 ;C:/gbdk/include/gb/metasprites.h:142: return __move_metasprite(base_sprite, x, y);
      000259 21 B0 B0         [12]  665 	ld	hl, #0xb0b0
      00025C E5               [16]  666 	push	hl
      00025D AF               [ 4]  667 	xor	a, a
      00025E F5               [16]  668 	push	af
      00025F 33               [ 8]  669 	inc	sp
      000260 CDr00r00         [24]  670 	call	___move_metasprite
      000263 E8 03            [16]  671 	add	sp, #3
                           000265   672 	C$GameTitle.c$140$2_0$134	= .
                                    673 	.globl	C$GameTitle.c$140$2_0$134
                                    674 ;src\GameTitle.c:140: return BATTLE;
      000265 3E 05            [ 8]  675 	ld	a, #0x05
      000267 C9               [16]  676 	ret
      000268                        677 00110$:
                           000268   678 	C$GameTitle.c$142$1_0$130	= .
                                    679 	.globl	C$GameTitle.c$142$1_0$130
                                    680 ;src\GameTitle.c:142: if (joypadCurrent & J_A)
      000268 CB 63            [ 8]  681 	bit	4, e
      00026A 28 2A            [12]  682 	jr	Z, 00112$
                           00026C   683 	C$GameTitle.c$144$2_0$135	= .
                                    684 	.globl	C$GameTitle.c$144$2_0$135
                                    685 ;src\GameTitle.c:144: fadeToBlack(10);
      00026C C5               [16]  686 	push	bc
      00026D 3E 0A            [ 8]  687 	ld	a, #0x0a
      00026F CDr00r00         [24]  688 	call	_fadeToBlack
      000272 C1               [12]  689 	pop	bc
                                    690 ;src\GameTitle.c:145: move_metasprite(globe_metasprites[frame], 0, 0, -80, -80);
      000273 21r01r00         [12]  691 	ld	hl, #_frame
      000276 6E               [ 8]  692 	ld	l, (hl)
                                    693 ;	spillPairReg hl
                                    694 ;	spillPairReg hl
      000277 26 00            [ 8]  695 	ld	h, #0x00
                                    696 ;	spillPairReg hl
                                    697 ;	spillPairReg hl
      000279 29               [ 8]  698 	add	hl, hl
      00027A 09               [ 8]  699 	add	hl, bc
      00027B 2A               [ 8]  700 	ld	a, (hl+)
      00027C 4E               [ 8]  701 	ld	c, (hl)
                                    702 ;C:/gbdk/include/gb/metasprites.h:140: __current_metasprite = metasprite;
      00027D 21r00r00         [12]  703 	ld	hl, #___current_metasprite
      000280 22               [ 8]  704 	ld	(hl+), a
      000281 71               [ 8]  705 	ld	(hl), c
                                    706 ;C:/gbdk/include/gb/metasprites.h:141: __current_base_tile = base_tile;
      000282 21r00r00         [12]  707 	ld	hl, #___current_base_tile
      000285 36 00            [12]  708 	ld	(hl), #0x00
                                    709 ;C:/gbdk/include/gb/metasprites.h:142: return __move_metasprite(base_sprite, x, y);
      000287 21 B0 B0         [12]  710 	ld	hl, #0xb0b0
      00028A E5               [16]  711 	push	hl
      00028B AF               [ 4]  712 	xor	a, a
      00028C F5               [16]  713 	push	af
      00028D 33               [ 8]  714 	inc	sp
      00028E CDr00r00         [24]  715 	call	___move_metasprite
      000291 E8 03            [16]  716 	add	sp, #3
                           000293   717 	C$GameTitle.c$146$2_0$135	= .
                                    718 	.globl	C$GameTitle.c$146$2_0$135
                                    719 ;src\GameTitle.c:146: return BESTIARY;
      000293 3E 04            [ 8]  720 	ld	a, #0x04
      000295 C9               [16]  721 	ret
      000296                        722 00112$:
                           000296   723 	C$GameTitle.c$149$1_0$130	= .
                                    724 	.globl	C$GameTitle.c$149$1_0$130
                                    725 ;src\GameTitle.c:149: return GAMETITLE;
      000296 3E 01            [ 8]  726 	ld	a, #0x01
                           000298   727 	C$GameTitle.c$150$1_0$130	= .
                                    728 	.globl	C$GameTitle.c$150$1_0$130
                                    729 ;src\GameTitle.c:150: }
                           000298   730 	C$GameTitle.c$150$1_0$130	= .
                                    731 	.globl	C$GameTitle.c$150$1_0$130
                           000298   732 	XG$GameTitleUpdate$0$0	= .
                                    733 	.globl	XG$GameTitleUpdate$0$0
      000298 C9               [16]  734 	ret
                                    735 	.area _CODE
                                    736 	.area _INITIALIZER
                           000000   737 FGameTitle$__xinit_timer$0_0$0 == .
      000000                        738 __xinit__timer:
      000000 00                     739 	.db #0x00	; 0
                           000001   740 FGameTitle$__xinit_frame$0_0$0 == .
      000001                        741 __xinit__frame:
      000001 00                     742 	.db #0x00	; 0
                                    743 	.area _CABS (ABS)
