                                      1 ;--------------------------------------------------------
                                      2 ; File Created by SDCC : free open source ISO C Compiler 
                                      3 ; Version 4.4.1 #14650 (MINGW64)
                                      4 ;--------------------------------------------------------
                                      5 	.module main
                                      6 	.optsdcc -msm83
                                      7 	
                                      8 ;--------------------------------------------------------
                                      9 ; Public variables in this module
                                     10 ;--------------------------------------------------------
                                     11 	.globl _main
                                     12 	.globl _BattleUpdate
                                     13 	.globl b_BattleSetup
                                     14 	.globl _BattleSetup
                                     15 	.globl b_BestiaryUpdate
                                     16 	.globl _BestiaryUpdate
                                     17 	.globl b_BestiarySetup
                                     18 	.globl _BestiarySetup
                                     19 	.globl b_GameJohnDoeUpdate
                                     20 	.globl _GameJohnDoeUpdate
                                     21 	.globl b_GameJohnDoeSetup
                                     22 	.globl _GameJohnDoeSetup
                                     23 	.globl b_CoreGameLoopUpdate
                                     24 	.globl _CoreGameLoopUpdate
                                     25 	.globl b_CoreGameLoopSetup
                                     26 	.globl _CoreGameLoopSetup
                                     27 	.globl _GameTitleUpdate
                                     28 	.globl _GameTitleSetup
                                     29 ;--------------------------------------------------------
                                     30 ; special function registers
                                     31 ;--------------------------------------------------------
                                     32 ;--------------------------------------------------------
                                     33 ; ram data
                                     34 ;--------------------------------------------------------
                                     35 	.area _DATA
                                     36 ;--------------------------------------------------------
                                     37 ; ram data
                                     38 ;--------------------------------------------------------
                                     39 	.area _INITIALIZED
                                     40 ;--------------------------------------------------------
                                     41 ; absolute external ram data
                                     42 ;--------------------------------------------------------
                                     43 	.area _DABS (ABS)
                                     44 ;--------------------------------------------------------
                                     45 ; global & static initialisations
                                     46 ;--------------------------------------------------------
                                     47 	.area _HOME
                                     48 	.area _GSINIT
                                     49 	.area _GSFINAL
                                     50 	.area _GSINIT
                                     51 ;--------------------------------------------------------
                                     52 ; Home
                                     53 ;--------------------------------------------------------
                                     54 	.area _HOME
                                     55 	.area _HOME
                                     56 ;--------------------------------------------------------
                                     57 ; code
                                     58 ;--------------------------------------------------------
                                     59 	.area _CODE
                         00000000    60 	G$main$0$0	= .
                                     61 	.globl	G$main$0$0
                         00000000    62 	C$main.c$9$0_0$149	= .
                                     63 	.globl	C$main.c$9$0_0$149
                                     64 ;src\main.c:9: void main(void)
                                     65 ;	---------------------------------
                                     66 ; Function main
                                     67 ; ---------------------------------
    00000000                         68 _main::
    00000000 3B               [ 8]   69 	dec	sp
                         00000001    70 	C$main.c$11$2_0$149	= .
                                     71 	.globl	C$main.c$11$2_0$149
                                     72 ;src\main.c:11: uint8_t currentGameState = GAMEFIRSTLOAD;
    00000001 F8 00            [12]   73 	ldhl	sp,	#0
    00000003 36 00            [12]   74 	ld	(hl), #0x00
                         00000005    75 	C$main.c$12$2_0$149	= .
                                     76 	.globl	C$main.c$12$2_0$149
                                     77 ;src\main.c:12: uint8_t nextGameState = GAMETITLE;
    00000005 06 01            [ 8]   78 	ld	b, #0x01
                         00000007    79 	C$main.c$15$1_0$149	= .
                                     80 	.globl	C$main.c$15$1_0$149
                                     81 ;src\main.c:15: while(1) { 
    00000007                         82 00118$:
                         00000007    83 	C$main.c$19$2_0$150	= .
                                     84 	.globl	C$main.c$19$2_0$150
                                     85 ;src\main.c:19: if (nextGameState != currentGameState)
    00000007 F8 00            [12]   86 	ldhl	sp,	#0
    00000009 7E               [ 8]   87 	ld	a, (hl)
    0000000A 90               [ 4]   88 	sub	a, b
    0000000B 28 7C            [12]   89 	jr	Z, 00109$
                         0000000D    90 	C$main.c$21$3_0$151	= .
                                     91 	.globl	C$main.c$21$3_0$151
                                     92 ;src\main.c:21: currentGameState = nextGameState;
    0000000D F8 00            [12]   93 	ldhl	sp,	#0
    0000000F 70               [ 8]   94 	ld	(hl), b
                         00000010    95 	C$main.c$22$3_0$151	= .
                                     96 	.globl	C$main.c$22$3_0$151
                                     97 ;src\main.c:22: switch (currentGameState)
    00000010 78               [ 4]   98 	ld	a, b
    00000011 3D               [ 4]   99 	dec	a
    00000012 28 13            [12]  100 	jr	Z, 00101$
    00000014 78               [ 4]  101 	ld	a,b
    00000015 FE 02            [ 8]  102 	cp	a,#0x02
    00000017 28 33            [12]  103 	jr	Z, 00103$
    00000019 FE 03            [ 8]  104 	cp	a,#0x03
    0000001B 28 1A            [12]  105 	jr	Z, 00102$
    0000001D FE 04            [ 8]  106 	cp	a,#0x04
    0000001F 28 40            [12]  107 	jr	Z, 00104$
    00000021 D6 05            [ 8]  108 	sub	a, #0x05
    00000023 28 51            [12]  109 	jr	Z, 00105$
    00000025 18 62            [12]  110 	jr	00109$
                         00000027   111 	C$main.c$24$4_0$152	= .
                                    112 	.globl	C$main.c$24$4_0$152
                                    113 ;src\main.c:24: case GAMETITLE:
    00000027                        114 00101$:
                         00000027   115 	C$main.c$25$4_0$152	= .
                                    116 	.globl	C$main.c$25$4_0$152
                                    117 ;src\main.c:25: SWITCH_ROM(BANK(const_bank_ID_title));
    00000027 3Er00            [ 8]  118 	ld	a, #<(___bank_const_bank_ID_title)
    00000029 E0r00            [12]  119 	ldh	(__current_bank + 0), a
    0000002B 21r00r00         [12]  120 	ld	hl, #_rROMB0
    0000002E 36r00            [12]  121 	ld	(hl), #<(___bank_const_bank_ID_title)
                         00000030   122 	C$main.c$26$4_0$152	= .
                                    123 	.globl	C$main.c$26$4_0$152
                                    124 ;src\main.c:26: GameTitleSetup();
    00000030 C5               [16]  125 	push	bc
    00000031 CDr00r00         [24]  126 	call	_GameTitleSetup
    00000034 C1               [12]  127 	pop	bc
                         00000035   128 	C$main.c$27$4_0$152	= .
                                    129 	.globl	C$main.c$27$4_0$152
                                    130 ;src\main.c:27: break;
    00000035 18 52            [12]  131 	jr	00109$
                         00000037   132 	C$main.c$28$4_0$152	= .
                                    133 	.globl	C$main.c$28$4_0$152
                                    134 ;src\main.c:28: case GAMEJOHNDOE:
    00000037                        135 00102$:
                         00000037   136 	C$main.c$29$4_0$152	= .
                                    137 	.globl	C$main.c$29$4_0$152
                                    138 ;src\main.c:29: SWITCH_ROM(BANK(const_bank_ID_John));
    00000037 3Er00            [ 8]  139 	ld	a, #<(___bank_const_bank_ID_John)
    00000039 E0r00            [12]  140 	ldh	(__current_bank + 0), a
    0000003B 21r00r00         [12]  141 	ld	hl, #_rROMB0
    0000003E 36r00            [12]  142 	ld	(hl), #<(___bank_const_bank_ID_John)
                         00000040   143 	C$main.c$30$4_0$152	= .
                                    144 	.globl	C$main.c$30$4_0$152
                                    145 ;src\main.c:30: GameJohnDoeSetup();
    00000040 C5               [16]  146 	push	bc
    00000041 1Er00            [ 8]  147 	ld	e, #b_GameJohnDoeSetup
    00000043 21r00r00         [12]  148 	ld	hl, #_GameJohnDoeSetup
    00000046 CDr00r00         [24]  149 	call	___sdcc_bcall_ehl
    00000049 C1               [12]  150 	pop	bc
                         0000004A   151 	C$main.c$31$4_0$152	= .
                                    152 	.globl	C$main.c$31$4_0$152
                                    153 ;src\main.c:31: break;
    0000004A 18 3D            [12]  154 	jr	00109$
                         0000004C   155 	C$main.c$32$4_0$152	= .
                                    156 	.globl	C$main.c$32$4_0$152
                                    157 ;src\main.c:32: case COREGAMELOOP:
    0000004C                        158 00103$:
                         0000004C   159 	C$main.c$33$4_0$152	= .
                                    160 	.globl	C$main.c$33$4_0$152
                                    161 ;src\main.c:33: SWITCH_ROM(BANK(const_bank_ID_core));
    0000004C 3Er00            [ 8]  162 	ld	a, #<(___bank_const_bank_ID_core)
    0000004E E0r00            [12]  163 	ldh	(__current_bank + 0), a
    00000050 21r00r00         [12]  164 	ld	hl, #_rROMB0
    00000053 36r00            [12]  165 	ld	(hl), #<(___bank_const_bank_ID_core)
                         00000055   166 	C$main.c$34$4_0$152	= .
                                    167 	.globl	C$main.c$34$4_0$152
                                    168 ;src\main.c:34: CoreGameLoopSetup();
    00000055 C5               [16]  169 	push	bc
    00000056 1Er00            [ 8]  170 	ld	e, #b_CoreGameLoopSetup
    00000058 21r00r00         [12]  171 	ld	hl, #_CoreGameLoopSetup
    0000005B CDr00r00         [24]  172 	call	___sdcc_bcall_ehl
    0000005E C1               [12]  173 	pop	bc
                         0000005F   174 	C$main.c$35$4_0$152	= .
                                    175 	.globl	C$main.c$35$4_0$152
                                    176 ;src\main.c:35: break;
    0000005F 18 28            [12]  177 	jr	00109$
                         00000061   178 	C$main.c$36$4_0$152	= .
                                    179 	.globl	C$main.c$36$4_0$152
                                    180 ;src\main.c:36: case BESTIARY:
    00000061                        181 00104$:
                         00000061   182 	C$main.c$37$4_0$152	= .
                                    183 	.globl	C$main.c$37$4_0$152
                                    184 ;src\main.c:37: SWITCH_ROM(BANK(const_bank_ID_bestiary));
    00000061 3Er00            [ 8]  185 	ld	a, #<(___bank_const_bank_ID_bestiary)
    00000063 E0r00            [12]  186 	ldh	(__current_bank + 0), a
    00000065 21r00r00         [12]  187 	ld	hl, #_rROMB0
    00000068 36r00            [12]  188 	ld	(hl), #<(___bank_const_bank_ID_bestiary)
                         0000006A   189 	C$main.c$38$4_0$152	= .
                                    190 	.globl	C$main.c$38$4_0$152
                                    191 ;src\main.c:38: BestiarySetup();
    0000006A C5               [16]  192 	push	bc
    0000006B 1Er00            [ 8]  193 	ld	e, #b_BestiarySetup
    0000006D 21r00r00         [12]  194 	ld	hl, #_BestiarySetup
    00000070 CDr00r00         [24]  195 	call	___sdcc_bcall_ehl
    00000073 C1               [12]  196 	pop	bc
                         00000074   197 	C$main.c$39$4_0$152	= .
                                    198 	.globl	C$main.c$39$4_0$152
                                    199 ;src\main.c:39: break;
    00000074 18 13            [12]  200 	jr	00109$
                         00000076   201 	C$main.c$40$4_0$152	= .
                                    202 	.globl	C$main.c$40$4_0$152
                                    203 ;src\main.c:40: case BATTLE:
    00000076                        204 00105$:
                         00000076   205 	C$main.c$41$4_0$152	= .
                                    206 	.globl	C$main.c$41$4_0$152
                                    207 ;src\main.c:41: SWITCH_ROM(BANK(const_bank_ID_battle));
    00000076 3Er00            [ 8]  208 	ld	a, #<(___bank_const_bank_ID_battle)
    00000078 E0r00            [12]  209 	ldh	(__current_bank + 0), a
    0000007A 21r00r00         [12]  210 	ld	hl, #_rROMB0
    0000007D 36r00            [12]  211 	ld	(hl), #<(___bank_const_bank_ID_battle)
                         0000007F   212 	C$main.c$42$4_0$152	= .
                                    213 	.globl	C$main.c$42$4_0$152
                                    214 ;src\main.c:42: BattleSetup();
    0000007F C5               [16]  215 	push	bc
    00000080 1Er00            [ 8]  216 	ld	e, #b_BattleSetup
    00000082 21r00r00         [12]  217 	ld	hl, #_BattleSetup
    00000085 CDr00r00         [24]  218 	call	___sdcc_bcall_ehl
    00000088 C1               [12]  219 	pop	bc
                         00000089   220 	C$main.c$46$2_0$150	= .
                                    221 	.globl	C$main.c$46$2_0$150
                                    222 ;src\main.c:46: }
    00000089                        223 00109$:
                         00000089   224 	C$main.c$48$2_0$150	= .
                                    225 	.globl	C$main.c$48$2_0$150
                                    226 ;src\main.c:48: switch (currentGameState)
    00000089 F8 00            [12]  227 	ldhl	sp,	#0
    0000008B 7E               [ 8]  228 	ld	a, (hl)
    0000008C 3D               [ 4]  229 	dec	a
    0000008D 28 1F            [12]  230 	jr	Z, 00110$
    0000008F F8 00            [12]  231 	ldhl	sp,	#0
    00000091 7E               [ 8]  232 	ld	a, (hl)
    00000092 D6 02            [ 8]  233 	sub	a, #0x02
    00000094 28 2B            [12]  234 	jr	Z, 00112$
    00000096 F8 00            [12]  235 	ldhl	sp,	#0
    00000098 7E               [ 8]  236 	ld	a, (hl)
    00000099 D6 03            [ 8]  237 	sub	a, #0x03
    0000009B 28 18            [12]  238 	jr	Z, 00111$
    0000009D F8 00            [12]  239 	ldhl	sp,	#0
    0000009F 7E               [ 8]  240 	ld	a, (hl)
    000000A0 D6 04            [ 8]  241 	sub	a, #0x04
    000000A2 28 29            [12]  242 	jr	Z, 00113$
    000000A4 F8 00            [12]  243 	ldhl	sp,	#0
    000000A6 7E               [ 8]  244 	ld	a, (hl)
    000000A7 D6 05            [ 8]  245 	sub	a, #0x05
    000000A9 28 2E            [12]  246 	jr	Z, 00114$
    000000AB C3r07r00         [16]  247 	jp	00118$
                         000000AE   248 	C$main.c$50$3_0$153	= .
                                    249 	.globl	C$main.c$50$3_0$153
                                    250 ;src\main.c:50: case GAMETITLE:
    000000AE                        251 00110$:
                         000000AE   252 	C$main.c$51$3_0$153	= .
                                    253 	.globl	C$main.c$51$3_0$153
                                    254 ;src\main.c:51: nextGameState = GameTitleUpdate();
    000000AE CDr00r00         [24]  255 	call	_GameTitleUpdate
    000000B1 47               [ 4]  256 	ld	b, a
                         000000B2   257 	C$main.c$52$3_0$153	= .
                                    258 	.globl	C$main.c$52$3_0$153
                                    259 ;src\main.c:52: break;
    000000B2 C3r07r00         [16]  260 	jp	00118$
                         000000B5   261 	C$main.c$53$3_0$153	= .
                                    262 	.globl	C$main.c$53$3_0$153
                                    263 ;src\main.c:53: case GAMEJOHNDOE:
    000000B5                        264 00111$:
                         000000B5   265 	C$main.c$54$3_0$153	= .
                                    266 	.globl	C$main.c$54$3_0$153
                                    267 ;src\main.c:54: nextGameState = GameJohnDoeUpdate();
    000000B5 1Er00            [ 8]  268 	ld	e, #b_GameJohnDoeUpdate
    000000B7 21r00r00         [12]  269 	ld	hl, #_GameJohnDoeUpdate
    000000BA CDr00r00         [24]  270 	call	___sdcc_bcall_ehl
    000000BD 47               [ 4]  271 	ld	b, a
                         000000BE   272 	C$main.c$55$3_0$153	= .
                                    273 	.globl	C$main.c$55$3_0$153
                                    274 ;src\main.c:55: break;
    000000BE C3r07r00         [16]  275 	jp	00118$
                         000000C1   276 	C$main.c$56$3_0$153	= .
                                    277 	.globl	C$main.c$56$3_0$153
                                    278 ;src\main.c:56: case COREGAMELOOP:
    000000C1                        279 00112$:
                         000000C1   280 	C$main.c$57$3_0$153	= .
                                    281 	.globl	C$main.c$57$3_0$153
                                    282 ;src\main.c:57: nextGameState = CoreGameLoopUpdate();
    000000C1 1Er00            [ 8]  283 	ld	e, #b_CoreGameLoopUpdate
    000000C3 21r00r00         [12]  284 	ld	hl, #_CoreGameLoopUpdate
    000000C6 CDr00r00         [24]  285 	call	___sdcc_bcall_ehl
    000000C9 47               [ 4]  286 	ld	b, a
                         000000CA   287 	C$main.c$58$3_0$153	= .
                                    288 	.globl	C$main.c$58$3_0$153
                                    289 ;src\main.c:58: break;
    000000CA C3r07r00         [16]  290 	jp	00118$
                         000000CD   291 	C$main.c$59$3_0$153	= .
                                    292 	.globl	C$main.c$59$3_0$153
                                    293 ;src\main.c:59: case BESTIARY:
    000000CD                        294 00113$:
                         000000CD   295 	C$main.c$60$3_0$153	= .
                                    296 	.globl	C$main.c$60$3_0$153
                                    297 ;src\main.c:60: nextGameState = BestiaryUpdate();
    000000CD 1Er00            [ 8]  298 	ld	e, #b_BestiaryUpdate
    000000CF 21r00r00         [12]  299 	ld	hl, #_BestiaryUpdate
    000000D2 CDr00r00         [24]  300 	call	___sdcc_bcall_ehl
    000000D5 47               [ 4]  301 	ld	b, a
                         000000D6   302 	C$main.c$61$3_0$153	= .
                                    303 	.globl	C$main.c$61$3_0$153
                                    304 ;src\main.c:61: break;
    000000D6 C3r07r00         [16]  305 	jp	00118$
                         000000D9   306 	C$main.c$62$3_0$153	= .
                                    307 	.globl	C$main.c$62$3_0$153
                                    308 ;src\main.c:62: case BATTLE:
    000000D9                        309 00114$:
                         000000D9   310 	C$main.c$63$3_0$153	= .
                                    311 	.globl	C$main.c$63$3_0$153
                                    312 ;src\main.c:63: nextGameState = BattleUpdate();
    000000D9 CDr00r00         [24]  313 	call	_BattleUpdate
    000000DC 47               [ 4]  314 	ld	b, a
                         000000DD   315 	C$main.c$64$3_0$153	= .
                                    316 	.globl	C$main.c$64$3_0$153
                                    317 ;src\main.c:64: break;
    000000DD C3r07r00         [16]  318 	jp	00118$
                         000000E0   319 	C$main.c$67$1_0$149	= .
                                    320 	.globl	C$main.c$67$1_0$149
                                    321 ;src\main.c:67: }
                         000000E0   322 	C$main.c$69$1_0$149	= .
                                    323 	.globl	C$main.c$69$1_0$149
                                    324 ;src\main.c:69: }
    000000E0 33               [ 8]  325 	inc	sp
                         000000E1   326 	C$main.c$69$1_0$149	= .
                                    327 	.globl	C$main.c$69$1_0$149
                         000000E1   328 	XG$main$0$0	= .
                                    329 	.globl	XG$main$0$0
    000000E1 C9               [16]  330 	ret
                                    331 	.area _CODE
                                    332 	.area _INITIALIZER
                                    333 	.area _CABS (ABS)
